Microsoft (R) Macro Assembler Version 14.38.33133.0	    12/14/23 14:39:22
test.asm						     Page 1 - 1


				.386					;告訴組譯器使用 80386 或更高版本的指令集
				.model flat, stdcall	;flat 表示使用平坦內存模型，stdcall 則表示使用 stdcall 調用慣例。
				;;;;;;;;;;;;;;;;;;;;;;;;;;;;;;;;;;;;;;;;;;;;;;;;;;;;;;;;;;;;;;;;;;;;;;;;;;;;;;;;;;;;;;;;;;;;;;;;;;;;
				;引入的外接函示庫
				includelib msvcrt.lib
				extern exit: proc
				extern malloc: proc
				extern memset: proc												

				includelib canvas.lib
				extern BeginDrawing: proc

				public start
				;;;;;;;;;;;;;;;;;;;;;;;;;;;;;;;;;;;;;;;;;;;;;;;;;;;;;;;;;;;;;;;;;;;;;;;;;;;;;;;;;;;;;;;;;;;;;;;;;;;;

 00000000			.data

 00000000 42 6F 6D 62 65	window_title DB "Bomberman",0	;標題
	   72 6D 61 6E 00
 = 000003B6			area_width EQU 950				;區域大小寬度
 = 000003B6			area_height EQU 950				;區域大小長度
 0000000A 00000000		area DD 0						;區域起始座標

 0000000E 00000000		counter DD 0					;計時器初始為0
 00000012 00000000		counterBomb DD 0				;炸彈計時器初始為0
 00000016 00000000		counterExplosion DD 0			;爆炸計時器初始為0
 0000001A 00000000		counterEnemy DD 0				;敵人計時器初始為0

 = 00000008			arg1 EQU 8						; arg1 - 要顯示的符號（字母或數字）
 = 0000000C			arg2 EQU 12						; arg2 - 指向像素向量的指針
 = 00000010			arg3 EQU 16						; arg3 - pos_x
 = 00000014			arg4 EQU 20						; arg4 - pos_y

 = 0000000A			symbol_width EQU 10
 = 00000014			symbol_height EQU 20
				include digits.inc
 0000001E 00 00 00 00 00      C digits DB 0, 0, 0, 0, 0, 0, 0, 0, 0, 0
	   00 00 00 00 00
 00000028  00 00 00 00 00     C        DB 0, 0, 0, 0, 0, 0, 0, 0, 0, 0
	   00 00 00 00 00
 00000032  00 00 00 00 00     C        DB 0, 0, 0, 0, 0, 0, 0, 0, 0, 0
	   00 00 00 00 00
 0000003C  00 00 00 00 00     C        DB 0, 0, 0, 0, 0, 0, 0, 0, 0, 0
	   00 00 00 00 00
 00000046  00 00 00 01 01     C        DB 0, 0, 0, 1, 1, 1, 1, 0, 0, 0
	   01 01 00 00 00
 00000050  00 00 01 01 00     C        DB 0, 0, 1, 1, 0, 0, 1, 1, 0, 0
	   00 01 01 00 00
 0000005A  00 01 01 00 00     C        DB 0, 1, 1, 0, 0, 0, 0, 1, 1, 0
	   00 00 01 01 00
 00000064  00 01 01 00 00     C        DB 0, 1, 1, 0, 0, 0, 1, 1, 1, 0
	   00 01 01 01 00
 0000006E  00 01 01 00 00     C        DB 0, 1, 1, 0, 0, 0, 1, 1, 1, 0
	   00 01 01 01 00
 00000078  00 01 01 00 00     C        DB 0, 1, 1, 0, 0, 1, 0, 1, 1, 0
	   01 00 01 01 00
 00000082  00 01 01 00 00     C        DB 0, 1, 1, 0, 0, 1, 0, 1, 1, 0
	   01 00 01 01 00
 0000008C  00 01 01 00 01     C        DB 0, 1, 1, 0, 1, 0, 0, 1, 1, 0
	   00 00 01 01 00
 00000096  00 01 01 00 01     C        DB 0, 1, 1, 0, 1, 0, 0, 1, 1, 0
	   00 00 01 01 00
 000000A0  00 01 01 01 00     C        DB 0, 1, 1, 1, 0, 0, 0, 1, 1, 0
	   00 00 01 01 00
 000000AA  00 01 01 01 00     C        DB 0, 1, 1, 1, 0, 0, 0, 1, 1, 0
	   00 00 01 01 00
 000000B4  00 01 01 00 00     C        DB 0, 1, 1, 0, 0, 0, 0, 1, 1, 0
	   00 00 01 01 00
 000000BE  00 00 01 01 00     C        DB 0, 0, 1, 1, 0, 0, 1, 1, 0, 0
	   00 01 01 00 00
 000000C8  00 00 00 01 01     C        DB 0, 0, 0, 1, 1, 1, 1, 0, 0, 0
	   01 01 00 00 00
 000000D2  00 00 00 00 00     C        DB 0, 0, 0, 0, 0, 0, 0, 0, 0, 0
	   00 00 00 00 00
 000000DC  00 00 00 00 00     C        DB 0, 0, 0, 0, 0, 0, 0, 0, 0, 0
	   00 00 00 00 00
			      C       
 000000E6  00 00 00 00 00     C        DB 0, 0, 0, 0, 0, 0, 0, 0, 0, 0
	   00 00 00 00 00
 000000F0  00 00 00 00 00     C        DB 0, 0, 0, 0, 0, 0, 0, 0, 0, 0
	   00 00 00 00 00
 000000FA  00 00 00 00 00     C        DB 0, 0, 0, 0, 0, 0, 0, 0, 0, 0
	   00 00 00 00 00
 00000104  00 00 00 00 00     C        DB 0, 0, 0, 0, 0, 0, 0, 0, 0, 0
	   00 00 00 00 00
 0000010E  00 00 00 00 01     C        DB 0, 0, 0, 0, 1, 1, 0, 0, 0, 0
	   01 00 00 00 00
 00000118  00 00 00 01 01     C        DB 0, 0, 0, 1, 1, 1, 0, 0, 0, 0
	   01 00 00 00 00
 00000122  00 01 01 01 01     C        DB 0, 1, 1, 1, 1, 1, 0, 0, 0, 0
	   01 00 00 00 00
 0000012C  00 00 00 00 01     C        DB 0, 0, 0, 0, 1, 1, 0, 0, 0, 0
	   01 00 00 00 00
 00000136  00 00 00 00 01     C        DB 0, 0, 0, 0, 1, 1, 0, 0, 0, 0
	   01 00 00 00 00
 00000140  00 00 00 00 01     C        DB 0, 0, 0, 0, 1, 1, 0, 0, 0, 0
	   01 00 00 00 00
 0000014A  00 00 00 00 01     C        DB 0, 0, 0, 0, 1, 1, 0, 0, 0, 0
	   01 00 00 00 00
 00000154  00 00 00 00 01     C        DB 0, 0, 0, 0, 1, 1, 0, 0, 0, 0
	   01 00 00 00 00
 0000015E  00 00 00 00 01     C        DB 0, 0, 0, 0, 1, 1, 0, 0, 0, 0
	   01 00 00 00 00
 00000168  00 00 00 00 01     C        DB 0, 0, 0, 0, 1, 1, 0, 0, 0, 0
	   01 00 00 00 00
 00000172  00 00 00 00 01     C        DB 0, 0, 0, 0, 1, 1, 0, 0, 0, 0
	   01 00 00 00 00
 0000017C  00 00 00 00 01     C        DB 0, 0, 0, 0, 1, 1, 0, 0, 0, 0
	   01 00 00 00 00
 00000186  00 00 00 00 01     C        DB 0, 0, 0, 0, 1, 1, 0, 0, 0, 0
	   01 00 00 00 00
 00000190  00 01 01 01 01     C        DB 0, 1, 1, 1, 1, 1, 1, 1, 1, 0
	   01 01 01 01 00
 0000019A  00 00 00 00 00     C        DB 0, 0, 0, 0, 0, 0, 0, 0, 0, 0
	   00 00 00 00 00
 000001A4  00 00 00 00 00     C        DB 0, 0, 0, 0, 0, 0, 0, 0, 0, 0
	   00 00 00 00 00
			      C       
 000001AE  00 00 00 00 00     C        DB 0, 0, 0, 0, 0, 0, 0, 0, 0, 0
	   00 00 00 00 00
 000001B8  00 00 00 00 00     C        DB 0, 0, 0, 0, 0, 0, 0, 0, 0, 0
	   00 00 00 00 00
 000001C2  00 00 00 00 00     C        DB 0, 0, 0, 0, 0, 0, 0, 0, 0, 0
	   00 00 00 00 00
 000001CC  00 00 00 00 00     C        DB 0, 0, 0, 0, 0, 0, 0, 0, 0, 0
	   00 00 00 00 00
 000001D6  00 00 00 01 01     C        DB 0, 0, 0, 1, 1, 1, 1, 0, 0, 0
	   01 01 00 00 00
 000001E0  00 00 01 01 00     C        DB 0, 0, 1, 1, 0, 0, 1, 1, 0, 0
	   00 01 01 00 00
 000001EA  00 01 01 00 00     C        DB 0, 1, 1, 0, 0, 0, 0, 1, 1, 0
	   00 00 01 01 00
 000001F4  00 01 01 00 00     C        DB 0, 1, 1, 0, 0, 0, 0, 1, 1, 0
	   00 00 01 01 00
 000001FE  00 00 00 00 00     C        DB 0, 0, 0, 0, 0, 0, 0, 1, 1, 0
	   00 00 01 01 00
 00000208  00 00 00 00 00     C        DB 0, 0, 0, 0, 0, 0, 0, 1, 1, 0
	   00 00 01 01 00
 00000212  00 00 00 00 00     C        DB 0, 0, 0, 0, 0, 0, 1, 1, 0, 0
	   00 01 01 00 00
 0000021C  00 00 00 00 00     C        DB 0, 0, 0, 0, 0, 1, 1, 0, 0, 0
	   01 01 00 00 00
 00000226  00 00 00 00 01     C        DB 0, 0, 0, 0, 1, 1, 0, 0, 0, 0
	   01 00 00 00 00
 00000230  00 00 00 01 01     C        DB 0, 0, 0, 1, 1, 0, 0, 0, 0, 0
	   00 00 00 00 00
 0000023A  00 00 01 01 00     C        DB 0, 0, 1, 1, 0, 0, 0, 0, 0, 0
	   00 00 00 00 00
 00000244  00 01 01 00 00     C        DB 0, 1, 1, 0, 0, 0, 0, 0, 0, 0
	   00 00 00 00 00
 0000024E  00 01 01 00 00     C        DB 0, 1, 1, 0, 0, 0, 0, 0, 0, 0
	   00 00 00 00 00
 00000258  00 01 01 01 01     C        DB 0, 1, 1, 1, 1, 1, 1, 1, 1, 0
	   01 01 01 01 00
 00000262  00 00 00 00 00     C        DB 0, 0, 0, 0, 0, 0, 0, 0, 0, 0
	   00 00 00 00 00
 0000026C  00 00 00 00 00     C        DB 0, 0, 0, 0, 0, 0, 0, 0, 0, 0
	   00 00 00 00 00
			      C       
 00000276  00 00 00 00 00     C        DB 0, 0, 0, 0, 0, 0, 0, 0, 0, 0
	   00 00 00 00 00
 00000280  00 00 00 00 00     C        DB 0, 0, 0, 0, 0, 0, 0, 0, 0, 0
	   00 00 00 00 00
 0000028A  00 00 00 00 00     C        DB 0, 0, 0, 0, 0, 0, 0, 0, 0, 0
	   00 00 00 00 00
 00000294  00 00 00 00 00     C        DB 0, 0, 0, 0, 0, 0, 0, 0, 0, 0
	   00 00 00 00 00
 0000029E  00 00 00 01 01     C        DB 0, 0, 0, 1, 1, 1, 1, 0, 0, 0
	   01 01 00 00 00
 000002A8  00 00 01 01 00     C        DB 0, 0, 1, 1, 0, 0, 1, 1, 0, 0
	   00 01 01 00 00
 000002B2  00 01 01 00 00     C        DB 0, 1, 1, 0, 0, 0, 0, 1, 1, 0
	   00 00 01 01 00
 000002BC  00 01 01 00 00     C        DB 0, 1, 1, 0, 0, 0, 0, 1, 1, 0
	   00 00 01 01 00
 000002C6  00 00 00 00 00     C        DB 0, 0, 0, 0, 0, 0, 0, 1, 1, 0
	   00 00 01 01 00
 000002D0  00 00 00 00 00     C        DB 0, 0, 0, 0, 0, 0, 0, 1, 1, 0
	   00 00 01 01 00
 000002DA  00 00 00 01 01     C        DB 0, 0, 0, 1, 1, 1, 1, 1, 0, 0
	   01 01 01 00 00
 000002E4  00 00 00 00 00     C        DB 0, 0, 0, 0, 0, 0, 0, 1, 1, 0
	   00 00 01 01 00
 000002EE  00 00 00 00 00     C        DB 0, 0, 0, 0, 0, 0, 0, 1, 1, 0
	   00 00 01 01 00
 000002F8  00 00 00 00 00     C        DB 0, 0, 0, 0, 0, 0, 0, 1, 1, 0
	   00 00 01 01 00
 00000302  00 01 01 00 00     C        DB 0, 1, 1, 0, 0, 0, 0, 1, 1, 0
	   00 00 01 01 00
 0000030C  00 01 01 00 00     C        DB 0, 1, 1, 0, 0, 0, 0, 1, 1, 0
	   00 00 01 01 00
 00000316  00 00 01 01 00     C        DB 0, 0, 1, 1, 0, 0, 1, 1, 0, 0
	   00 01 01 00 00
 00000320  00 00 00 01 01     C        DB 0, 0, 0, 1, 1, 1, 1, 0, 0, 0
	   01 01 00 00 00
 0000032A  00 00 00 00 00     C        DB 0, 0, 0, 0, 0, 0, 0, 0, 0, 0
	   00 00 00 00 00
 00000334  00 00 00 00 00     C        DB 0, 0, 0, 0, 0, 0, 0, 0, 0, 0
	   00 00 00 00 00
			      C       
 0000033E  00 00 00 00 00     C        DB 0, 0, 0, 0, 0, 0, 0, 0, 0, 0
	   00 00 00 00 00
 00000348  00 00 00 00 00     C        DB 0, 0, 0, 0, 0, 0, 0, 0, 0, 0
	   00 00 00 00 00
 00000352  00 00 00 00 00     C        DB 0, 0, 0, 0, 0, 0, 0, 0, 0, 0
	   00 00 00 00 00
 0000035C  00 00 00 00 00     C        DB 0, 0, 0, 0, 0, 0, 0, 0, 0, 0
	   00 00 00 00 00
 00000366  00 00 00 00 01     C        DB 0, 0, 0, 0, 1, 1, 0, 0, 0, 0
	   01 00 00 00 00
 00000370  00 00 00 00 01     C        DB 0, 0, 0, 0, 1, 1, 0, 0, 0, 0
	   01 00 00 00 00
 0000037A  00 00 00 01 01     C        DB 0, 0, 0, 1, 1, 0, 0, 0, 0, 0
	   00 00 00 00 00
 00000384  00 00 00 01 01     C        DB 0, 0, 0, 1, 1, 0, 0, 0, 0, 0
	   00 00 00 00 00
 0000038E  00 00 00 01 01     C        DB 0, 0, 0, 1, 1, 0, 0, 0, 0, 0
	   00 00 00 00 00
 00000398  00 00 01 01 00     C        DB 0, 0, 1, 1, 0, 0, 0, 0, 0, 0
	   00 00 00 00 00
 000003A2  00 00 01 01 00     C        DB 0, 0, 1, 1, 0, 0, 0, 0, 0, 0
	   00 00 00 00 00
 000003AC  00 00 01 01 00     C        DB 0, 0, 1, 1, 0, 1, 1, 0, 0, 0
	   01 01 00 00 00
 000003B6  00 01 01 00 00     C        DB 0, 1, 1, 0, 0, 1, 1, 0, 0, 0
	   01 01 00 00 00
 000003C0  00 01 01 00 00     C        DB 0, 1, 1, 0, 0, 1, 1, 0, 0, 0
	   01 01 00 00 00
 000003CA  00 01 01 00 00     C        DB 0, 1, 1, 0, 0, 1, 1, 0, 0, 0
	   01 01 00 00 00
 000003D4  00 01 01 01 01     C        DB 0, 1, 1, 1, 1, 1, 1, 1, 1, 0
	   01 01 01 01 00
 000003DE  00 00 00 00 00     C        DB 0, 0, 0, 0, 0, 1, 1, 0, 0, 0
	   01 01 00 00 00
 000003E8  00 00 00 00 00     C        DB 0, 0, 0, 0, 0, 1, 1, 0, 0, 0
	   01 01 00 00 00
 000003F2  00 00 00 00 00     C        DB 0, 0, 0, 0, 0, 0, 0, 0, 0, 0
	   00 00 00 00 00
 000003FC  00 00 00 00 00     C        DB 0, 0, 0, 0, 0, 0, 0, 0, 0, 0
	   00 00 00 00 00
			      C       
 00000406  00 00 00 00 00     C        DB 0, 0, 0, 0, 0, 0, 0, 0, 0, 0
	   00 00 00 00 00
 00000410  00 00 00 00 00     C        DB 0, 0, 0, 0, 0, 0, 0, 0, 0, 0
	   00 00 00 00 00
 0000041A  00 00 00 00 00     C        DB 0, 0, 0, 0, 0, 0, 0, 0, 0, 0
	   00 00 00 00 00
 00000424  00 00 00 00 00     C        DB 0, 0, 0, 0, 0, 0, 0, 0, 0, 0
	   00 00 00 00 00
 0000042E  00 01 01 01 01     C        DB 0, 1, 1, 1, 1, 1, 1, 1, 1, 0
	   01 01 01 01 00
 00000438  00 01 01 00 00     C        DB 0, 1, 1, 0, 0, 0, 0, 0, 0, 0
	   00 00 00 00 00
 00000442  00 01 01 00 00     C        DB 0, 1, 1, 0, 0, 0, 0, 0, 0, 0
	   00 00 00 00 00
 0000044C  00 01 01 00 00     C        DB 0, 1, 1, 0, 0, 0, 0, 0, 0, 0
	   00 00 00 00 00
 00000456  00 01 01 00 00     C        DB 0, 1, 1, 0, 0, 0, 0, 0, 0, 0
	   00 00 00 00 00
 00000460  00 01 01 01 01     C        DB 0, 1, 1, 1, 1, 1, 1, 0, 0, 0
	   01 01 00 00 00
 0000046A  00 00 00 00 00     C        DB 0, 0, 0, 0, 0, 0, 1, 1, 0, 0
	   00 01 01 00 00
 00000474  00 00 00 00 00     C        DB 0, 0, 0, 0, 0, 0, 0, 1, 1, 0
	   00 00 01 01 00
 0000047E  00 00 00 00 00     C        DB 0, 0, 0, 0, 0, 0, 0, 1, 1, 0
	   00 00 01 01 00
 00000488  00 00 00 00 00     C        DB 0, 0, 0, 0, 0, 0, 0, 1, 1, 0
	   00 00 01 01 00
 00000492  00 01 01 00 00     C        DB 0, 1, 1, 0, 0, 0, 0, 1, 1, 0
	   00 00 01 01 00
 0000049C  00 01 01 00 00     C        DB 0, 1, 1, 0, 0, 0, 0, 1, 1, 0
	   00 00 01 01 00
 000004A6  00 00 01 01 00     C        DB 0, 0, 1, 1, 0, 0, 1, 1, 0, 0
	   00 01 01 00 00
 000004B0  00 00 00 01 01     C        DB 0, 0, 0, 1, 1, 1, 1, 0, 0, 0
	   01 01 00 00 00
 000004BA  00 00 00 00 00     C        DB 0, 0, 0, 0, 0, 0, 0, 0, 0, 0
	   00 00 00 00 00
 000004C4  00 00 00 00 00     C        DB 0, 0, 0, 0, 0, 0, 0, 0, 0, 0
	   00 00 00 00 00
			      C       
 000004CE  00 00 00 00 00     C        DB 0, 0, 0, 0, 0, 0, 0, 0, 0, 0
	   00 00 00 00 00
 000004D8  00 00 00 00 00     C        DB 0, 0, 0, 0, 0, 0, 0, 0, 0, 0
	   00 00 00 00 00
 000004E2  00 00 00 00 00     C        DB 0, 0, 0, 0, 0, 0, 0, 0, 0, 0
	   00 00 00 00 00
 000004EC  00 00 00 00 00     C        DB 0, 0, 0, 0, 0, 0, 0, 0, 0, 0
	   00 00 00 00 00
 000004F6  00 00 00 00 00     C        DB 0, 0, 0, 0, 0, 1, 1, 1, 1, 0
	   01 01 01 01 00
 00000500  00 00 00 00 01     C        DB 0, 0, 0, 0, 1, 1, 0, 0, 0, 0
	   01 00 00 00 00
 0000050A  00 00 00 01 01     C        DB 0, 0, 0, 1, 1, 0, 0, 0, 0, 0
	   00 00 00 00 00
 00000514  00 00 01 01 00     C        DB 0, 0, 1, 1, 0, 0, 0, 0, 0, 0
	   00 00 00 00 00
 0000051E  00 00 01 01 00     C        DB 0, 0, 1, 1, 0, 0, 0, 0, 0, 0
	   00 00 00 00 00
 00000528  00 01 01 00 00     C        DB 0, 1, 1, 0, 0, 0, 0, 0, 0, 0
	   00 00 00 00 00
 00000532  00 01 01 01 01     C        DB 0, 1, 1, 1, 1, 1, 1, 0, 0, 0
	   01 01 00 00 00
 0000053C  00 01 01 00 00     C        DB 0, 1, 1, 0, 0, 0, 1, 1, 0, 0
	   00 01 01 00 00
 00000546  00 01 01 00 00     C        DB 0, 1, 1, 0, 0, 0, 0, 1, 1, 0
	   00 00 01 01 00
 00000550  00 01 01 00 00     C        DB 0, 1, 1, 0, 0, 0, 0, 1, 1, 0
	   00 00 01 01 00
 0000055A  00 01 01 00 00     C        DB 0, 1, 1, 0, 0, 0, 0, 1, 1, 0
	   00 00 01 01 00
 00000564  00 01 01 00 00     C        DB 0, 1, 1, 0, 0, 0, 0, 1, 1, 0
	   00 00 01 01 00
 0000056E  00 00 01 01 00     C        DB 0, 0, 1, 1, 0, 0, 1, 1, 0, 0
	   00 01 01 00 00
 00000578  00 00 00 01 01     C        DB 0, 0, 0, 1, 1, 1, 1, 0, 0, 0
	   01 01 00 00 00
 00000582  00 00 00 00 00     C        DB 0, 0, 0, 0, 0, 0, 0, 0, 0, 0
	   00 00 00 00 00
 0000058C  00 00 00 00 00     C        DB 0, 0, 0, 0, 0, 0, 0, 0, 0, 0
	   00 00 00 00 00
			      C       
 00000596  00 00 00 00 00     C        DB 0, 0, 0, 0, 0, 0, 0, 0, 0, 0
	   00 00 00 00 00
 000005A0  00 00 00 00 00     C        DB 0, 0, 0, 0, 0, 0, 0, 0, 0, 0
	   00 00 00 00 00
 000005AA  00 00 00 00 00     C        DB 0, 0, 0, 0, 0, 0, 0, 0, 0, 0
	   00 00 00 00 00
 000005B4  00 00 00 00 00     C        DB 0, 0, 0, 0, 0, 0, 0, 0, 0, 0
	   00 00 00 00 00
 000005BE  00 01 01 01 01     C        DB 0, 1, 1, 1, 1, 1, 1, 1, 1, 0
	   01 01 01 01 00
 000005C8  00 00 00 00 00     C        DB 0, 0, 0, 0, 0, 0, 0, 1, 1, 0
	   00 00 01 01 00
 000005D2  00 00 00 00 00     C        DB 0, 0, 0, 0, 0, 0, 0, 1, 1, 0
	   00 00 01 01 00
 000005DC  00 00 00 00 00     C        DB 0, 0, 0, 0, 0, 0, 0, 1, 1, 0
	   00 00 01 01 00
 000005E6  00 00 00 00 00     C        DB 0, 0, 0, 0, 0, 0, 1, 1, 0, 0
	   00 01 01 00 00
 000005F0  00 00 00 00 00     C        DB 0, 0, 0, 0, 0, 0, 1, 1, 0, 0
	   00 01 01 00 00
 000005FA  00 00 00 00 00     C        DB 0, 0, 0, 0, 0, 0, 1, 1, 0, 0
	   00 01 01 00 00
 00000604  00 00 00 00 00     C        DB 0, 0, 0, 0, 0, 1, 1, 0, 0, 0
	   01 01 00 00 00
 0000060E  00 00 00 00 00     C        DB 0, 0, 0, 0, 0, 1, 1, 0, 0, 0
	   01 01 00 00 00
 00000618  00 00 00 00 00     C        DB 0, 0, 0, 0, 0, 1, 1, 0, 0, 0
	   01 01 00 00 00
 00000622  00 00 00 00 01     C        DB 0, 0, 0, 0, 1, 1, 0, 0, 0, 0
	   01 00 00 00 00
 0000062C  00 00 00 00 01     C        DB 0, 0, 0, 0, 1, 1, 0, 0, 0, 0
	   01 00 00 00 00
 00000636  00 00 00 00 01     C        DB 0, 0, 0, 0, 1, 1, 0, 0, 0, 0
	   01 00 00 00 00
 00000640  00 00 00 00 01     C        DB 0, 0, 0, 0, 1, 1, 0, 0, 0, 0
	   01 00 00 00 00
 0000064A  00 00 00 00 00     C        DB 0, 0, 0, 0, 0, 0, 0, 0, 0, 0
	   00 00 00 00 00
 00000654  00 00 00 00 00     C        DB 0, 0, 0, 0, 0, 0, 0, 0, 0, 0
	   00 00 00 00 00
			      C       
 0000065E  00 00 00 00 00     C        DB 0, 0, 0, 0, 0, 0, 0, 0, 0, 0
	   00 00 00 00 00
 00000668  00 00 00 00 00     C        DB 0, 0, 0, 0, 0, 0, 0, 0, 0, 0
	   00 00 00 00 00
 00000672  00 00 00 00 00     C        DB 0, 0, 0, 0, 0, 0, 0, 0, 0, 0
	   00 00 00 00 00
 0000067C  00 00 00 00 00     C        DB 0, 0, 0, 0, 0, 0, 0, 0, 0, 0
	   00 00 00 00 00
 00000686  00 00 00 01 01     C        DB 0, 0, 0, 1, 1, 1, 1, 0, 0, 0
	   01 01 00 00 00
 00000690  00 00 01 01 00     C        DB 0, 0, 1, 1, 0, 0, 1, 1, 0, 0
	   00 01 01 00 00
 0000069A  00 01 01 00 00     C        DB 0, 1, 1, 0, 0, 0, 0, 1, 1, 0
	   00 00 01 01 00
 000006A4  00 01 01 00 00     C        DB 0, 1, 1, 0, 0, 0, 0, 1, 1, 0
	   00 00 01 01 00
 000006AE  00 01 01 00 00     C        DB 0, 1, 1, 0, 0, 0, 0, 1, 1, 0
	   00 00 01 01 00
 000006B8  00 00 01 01 00     C        DB 0, 0, 1, 1, 0, 0, 1, 1, 0, 0
	   00 01 01 00 00
 000006C2  00 00 00 01 01     C        DB 0, 0, 0, 1, 1, 1, 1, 0, 0, 0
	   01 01 00 00 00
 000006CC  00 00 01 01 00     C        DB 0, 0, 1, 1, 0, 0, 1, 1, 0, 0
	   00 01 01 00 00
 000006D6  00 01 01 00 00     C        DB 0, 1, 1, 0, 0, 0, 0, 1, 1, 0
	   00 00 01 01 00
 000006E0  00 01 01 00 00     C        DB 0, 1, 1, 0, 0, 0, 0, 1, 1, 0
	   00 00 01 01 00
 000006EA  00 01 01 00 00     C        DB 0, 1, 1, 0, 0, 0, 0, 1, 1, 0
	   00 00 01 01 00
 000006F4  00 01 01 00 00     C        DB 0, 1, 1, 0, 0, 0, 0, 1, 1, 0
	   00 00 01 01 00
 000006FE  00 00 01 01 00     C        DB 0, 0, 1, 1, 0, 0, 1, 1, 0, 0
	   00 01 01 00 00
 00000708  00 00 00 01 01     C        DB 0, 0, 0, 1, 1, 1, 1, 0, 0, 0
	   01 01 00 00 00
 00000712  00 00 00 00 00     C        DB 0, 0, 0, 0, 0, 0, 0, 0, 0, 0
	   00 00 00 00 00
 0000071C  00 00 00 00 00     C        DB 0, 0, 0, 0, 0, 0, 0, 0, 0, 0
	   00 00 00 00 00
			      C       
 00000726  00 00 00 00 00     C        DB 0, 0, 0, 0, 0, 0, 0, 0, 0, 0
	   00 00 00 00 00
 00000730  00 00 00 00 00     C        DB 0, 0, 0, 0, 0, 0, 0, 0, 0, 0
	   00 00 00 00 00
 0000073A  00 00 00 00 00     C        DB 0, 0, 0, 0, 0, 0, 0, 0, 0, 0
	   00 00 00 00 00
 00000744  00 00 00 00 00     C        DB 0, 0, 0, 0, 0, 0, 0, 0, 0, 0
	   00 00 00 00 00
 0000074E  00 00 00 01 01     C        DB 0, 0, 0, 1, 1, 1, 1, 0, 0, 0
	   01 01 00 00 00
 00000758  00 00 01 01 00     C        DB 0, 0, 1, 1, 0, 0, 1, 1, 0, 0
	   00 01 01 00 00
 00000762  00 01 01 00 00     C        DB 0, 1, 1, 0, 0, 0, 0, 1, 1, 0
	   00 00 01 01 00
 0000076C  00 01 01 00 00     C        DB 0, 1, 1, 0, 0, 0, 0, 1, 1, 0
	   00 00 01 01 00
 00000776  00 01 01 00 00     C        DB 0, 1, 1, 0, 0, 0, 0, 1, 1, 0
	   00 00 01 01 00
 00000780  00 01 01 00 00     C        DB 0, 1, 1, 0, 0, 0, 0, 1, 1, 0
	   00 00 01 01 00
 0000078A  00 00 01 01 00     C        DB 0, 0, 1, 1, 0, 0, 0, 1, 1, 0
	   00 00 01 01 00
 00000794  00 00 00 01 01     C        DB 0, 0, 0, 1, 1, 1, 1, 1, 1, 0
	   01 01 01 01 00
 0000079E  00 00 00 00 00     C        DB 0, 0, 0, 0, 0, 0, 0, 1, 1, 0
	   00 00 01 01 00
 000007A8  00 00 00 00 00     C        DB 0, 0, 0, 0, 0, 0, 1, 1, 0, 0
	   00 01 01 00 00
 000007B2  00 00 00 00 00     C        DB 0, 0, 0, 0, 0, 0, 1, 1, 0, 0
	   00 01 01 00 00
 000007BC  00 00 00 00 00     C        DB 0, 0, 0, 0, 0, 1, 1, 0, 0, 0
	   01 01 00 00 00
 000007C6  00 00 00 00 01     C        DB 0, 0, 0, 0, 1, 1, 0, 0, 0, 0
	   01 00 00 00 00
 000007D0  00 01 01 01 01     C        DB 0, 1, 1, 1, 1, 0, 0, 0, 0, 0
	   00 00 00 00 00
 000007DA  00 00 00 00 00     C        DB 0, 0, 0, 0, 0, 0, 0, 0, 0, 0
	   00 00 00 00 00
 000007E4  00 00 00 00 00     C        DB 0, 0, 0, 0, 0, 0, 0, 0, 0, 0
	   00 00 00 00 00
			      C       
			      C 
				include letters.inc
 000007EE 00 00 00 00 00      C letters DB 0, 0, 0, 0, 0, 0, 0, 0, 0, 0
	   00 00 00 00 00
 000007F8  00 00 00 00 00     C         DB 0, 0, 0, 0, 0, 0, 0, 0, 0, 0
	   00 00 00 00 00
 00000802  00 00 00 00 00     C         DB 0, 0, 0, 0, 0, 0, 0, 0, 0, 0
	   00 00 00 00 00
 0000080C  00 00 00 00 00     C         DB 0, 0, 0, 0, 0, 0, 0, 0, 0, 0
	   00 00 00 00 00
 00000816  00 00 00 01 01     C         DB 0, 0, 0, 1, 1, 1, 1, 0, 0, 0
	   01 01 00 00 00
 00000820  00 00 01 01 00     C         DB 0, 0, 1, 1, 0, 0, 1, 1, 0, 0
	   00 01 01 00 00
 0000082A  00 01 01 00 00     C         DB 0, 1, 1, 0, 0, 0, 0, 1, 1, 0
	   00 00 01 01 00
 00000834  00 01 01 00 00     C         DB 0, 1, 1, 0, 0, 0, 0, 1, 1, 0
	   00 00 01 01 00
 0000083E  00 01 01 00 00     C         DB 0, 1, 1, 0, 0, 0, 0, 1, 1, 0
	   00 00 01 01 00
 00000848  00 01 01 00 00     C         DB 0, 1, 1, 0, 0, 0, 0, 1, 1, 0
	   00 00 01 01 00
 00000852  00 01 01 00 00     C         DB 0, 1, 1, 0, 0, 0, 0, 1, 1, 0
	   00 00 01 01 00
 0000085C  00 01 01 00 00     C         DB 0, 1, 1, 0, 0, 0, 0, 1, 1, 0
	   00 00 01 01 00
 00000866  00 01 01 01 01     C         DB 0, 1, 1, 1, 1, 1, 1, 1, 1, 0
	   01 01 01 01 00
 00000870  00 01 01 00 00     C         DB 0, 1, 1, 0, 0, 0, 0, 1, 1, 0
	   00 00 01 01 00
 0000087A  00 01 01 00 00     C         DB 0, 1, 1, 0, 0, 0, 0, 1, 1, 0
	   00 00 01 01 00
 00000884  00 01 01 00 00     C         DB 0, 1, 1, 0, 0, 0, 0, 1, 1, 0
	   00 00 01 01 00
 0000088E  00 01 01 00 00     C         DB 0, 1, 1, 0, 0, 0, 0, 1, 1, 0
	   00 00 01 01 00
 00000898  00 01 01 00 00     C         DB 0, 1, 1, 0, 0, 0, 0, 1, 1, 0
	   00 00 01 01 00
 000008A2  00 00 00 00 00     C         DB 0, 0, 0, 0, 0, 0, 0, 0, 0, 0
	   00 00 00 00 00
 000008AC  00 00 00 00 00     C         DB 0, 0, 0, 0, 0, 0, 0, 0, 0, 0
	   00 00 00 00 00
			      C        
 000008B6  00 00 00 00 00     C         DB 0, 0, 0, 0, 0, 0, 0, 0, 0, 0
	   00 00 00 00 00
 000008C0  00 00 00 00 00     C         DB 0, 0, 0, 0, 0, 0, 0, 0, 0, 0
	   00 00 00 00 00
 000008CA  00 00 00 00 00     C         DB 0, 0, 0, 0, 0, 0, 0, 0, 0, 0
	   00 00 00 00 00
 000008D4  00 00 00 00 00     C         DB 0, 0, 0, 0, 0, 0, 0, 0, 0, 0
	   00 00 00 00 00
 000008DE  00 01 01 01 01     C         DB 0, 1, 1, 1, 1, 1, 1, 0, 0, 0
	   01 01 00 00 00
 000008E8  00 01 01 00 00     C         DB 0, 1, 1, 0, 0, 0, 1, 1, 0, 0
	   00 01 01 00 00
 000008F2  00 01 01 00 00     C         DB 0, 1, 1, 0, 0, 0, 0, 1, 1, 0
	   00 00 01 01 00
 000008FC  00 01 01 00 00     C         DB 0, 1, 1, 0, 0, 0, 0, 1, 1, 0
	   00 00 01 01 00
 00000906  00 01 01 00 00     C         DB 0, 1, 1, 0, 0, 0, 0, 1, 1, 0
	   00 00 01 01 00
 00000910  00 01 01 00 00     C         DB 0, 1, 1, 0, 0, 0, 1, 1, 0, 0
	   00 01 01 00 00
 0000091A  00 01 01 01 01     C         DB 0, 1, 1, 1, 1, 1, 1, 0, 0, 0
	   01 01 00 00 00
 00000924  00 01 01 00 00     C         DB 0, 1, 1, 0, 0, 0, 1, 1, 0, 0
	   00 01 01 00 00
 0000092E  00 01 01 00 00     C         DB 0, 1, 1, 0, 0, 0, 0, 1, 1, 0
	   00 00 01 01 00
 00000938  00 01 01 00 00     C         DB 0, 1, 1, 0, 0, 0, 0, 1, 1, 0
	   00 00 01 01 00
 00000942  00 01 01 00 00     C         DB 0, 1, 1, 0, 0, 0, 0, 1, 1, 0
	   00 00 01 01 00
 0000094C  00 01 01 00 00     C         DB 0, 1, 1, 0, 0, 0, 0, 1, 1, 0
	   00 00 01 01 00
 00000956  00 01 01 00 00     C         DB 0, 1, 1, 0, 0, 0, 1, 1, 0, 0
	   00 01 01 00 00
 00000960  00 01 01 01 01     C         DB 0, 1, 1, 1, 1, 1, 1, 0, 0, 0
	   01 01 00 00 00
 0000096A  00 00 00 00 00     C         DB 0, 0, 0, 0, 0, 0, 0, 0, 0, 0
	   00 00 00 00 00
 00000974  00 00 00 00 00     C         DB 0, 0, 0, 0, 0, 0, 0, 0, 0, 0
	   00 00 00 00 00
			      C        
 0000097E  00 00 00 00 00     C         DB 0, 0, 0, 0, 0, 0, 0, 0, 0, 0
	   00 00 00 00 00
 00000988  00 00 00 00 00     C         DB 0, 0, 0, 0, 0, 0, 0, 0, 0, 0
	   00 00 00 00 00
 00000992  00 00 00 00 00     C         DB 0, 0, 0, 0, 0, 0, 0, 0, 0, 0
	   00 00 00 00 00
 0000099C  00 00 00 00 00     C         DB 0, 0, 0, 0, 0, 0, 0, 0, 0, 0
	   00 00 00 00 00
 000009A6  00 00 00 01 01     C         DB 0, 0, 0, 1, 1, 1, 1, 0, 0, 0
	   01 01 00 00 00
 000009B0  00 00 01 01 00     C         DB 0, 0, 1, 1, 0, 0, 1, 1, 0, 0
	   00 01 01 00 00
 000009BA  00 01 01 00 00     C         DB 0, 1, 1, 0, 0, 0, 0, 1, 1, 0
	   00 00 01 01 00
 000009C4  00 01 01 00 00     C         DB 0, 1, 1, 0, 0, 0, 0, 1, 1, 0
	   00 00 01 01 00
 000009CE  00 01 01 00 00     C         DB 0, 1, 1, 0, 0, 0, 0, 0, 0, 0
	   00 00 00 00 00
 000009D8  00 01 01 00 00     C         DB 0, 1, 1, 0, 0, 0, 0, 0, 0, 0
	   00 00 00 00 00
 000009E2  00 01 01 00 00     C         DB 0, 1, 1, 0, 0, 0, 0, 0, 0, 0
	   00 00 00 00 00
 000009EC  00 01 01 00 00     C         DB 0, 1, 1, 0, 0, 0, 0, 0, 0, 0
	   00 00 00 00 00
 000009F6  00 01 01 00 00     C         DB 0, 1, 1, 0, 0, 0, 0, 0, 0, 0
	   00 00 00 00 00
 00000A00  00 01 01 00 00     C         DB 0, 1, 1, 0, 0, 0, 0, 0, 0, 0
	   00 00 00 00 00
 00000A0A  00 01 01 00 00     C         DB 0, 1, 1, 0, 0, 0, 0, 1, 1, 0
	   00 00 01 01 00
 00000A14  00 01 01 00 00     C         DB 0, 1, 1, 0, 0, 0, 0, 1, 1, 0
	   00 00 01 01 00
 00000A1E  00 00 01 01 00     C         DB 0, 0, 1, 1, 0, 0, 1, 1, 0, 0
	   00 01 01 00 00
 00000A28  00 00 00 01 01     C         DB 0, 0, 0, 1, 1, 1, 1, 0, 0, 0
	   01 01 00 00 00
 00000A32  00 00 00 00 00     C         DB 0, 0, 0, 0, 0, 0, 0, 0, 0, 0
	   00 00 00 00 00
 00000A3C  00 00 00 00 00     C         DB 0, 0, 0, 0, 0, 0, 0, 0, 0, 0
	   00 00 00 00 00
			      C        
 00000A46  00 00 00 00 00     C         DB 0, 0, 0, 0, 0, 0, 0, 0, 0, 0
	   00 00 00 00 00
 00000A50  00 00 00 00 00     C         DB 0, 0, 0, 0, 0, 0, 0, 0, 0, 0
	   00 00 00 00 00
 00000A5A  00 00 00 00 00     C         DB 0, 0, 0, 0, 0, 0, 0, 0, 0, 0
	   00 00 00 00 00
 00000A64  00 00 00 00 00     C         DB 0, 0, 0, 0, 0, 0, 0, 0, 0, 0
	   00 00 00 00 00
 00000A6E  00 01 01 01 01     C         DB 0, 1, 1, 1, 1, 1, 1, 0, 0, 0
	   01 01 00 00 00
 00000A78  00 01 01 00 00     C         DB 0, 1, 1, 0, 0, 0, 1, 1, 0, 0
	   00 01 01 00 00
 00000A82  00 01 01 00 00     C         DB 0, 1, 1, 0, 0, 0, 1, 1, 0, 0
	   00 01 01 00 00
 00000A8C  00 01 01 00 00     C         DB 0, 1, 1, 0, 0, 0, 0, 1, 1, 0
	   00 00 01 01 00
 00000A96  00 01 01 00 00     C         DB 0, 1, 1, 0, 0, 0, 0, 1, 1, 0
	   00 00 01 01 00
 00000AA0  00 01 01 00 00     C         DB 0, 1, 1, 0, 0, 0, 0, 1, 1, 0
	   00 00 01 01 00
 00000AAA  00 01 01 00 00     C         DB 0, 1, 1, 0, 0, 0, 0, 1, 1, 0
	   00 00 01 01 00
 00000AB4  00 01 01 00 00     C         DB 0, 1, 1, 0, 0, 0, 0, 1, 1, 0
	   00 00 01 01 00
 00000ABE  00 01 01 00 00     C         DB 0, 1, 1, 0, 0, 0, 0, 1, 1, 0
	   00 00 01 01 00
 00000AC8  00 01 01 00 00     C         DB 0, 1, 1, 0, 0, 0, 0, 1, 1, 0
	   00 00 01 01 00
 00000AD2  00 01 01 00 00     C         DB 0, 1, 1, 0, 0, 0, 0, 1, 1, 0
	   00 00 01 01 00
 00000ADC  00 01 01 00 00     C         DB 0, 1, 1, 0, 0, 0, 1, 1, 0, 0
	   00 01 01 00 00
 00000AE6  00 01 01 00 00     C         DB 0, 1, 1, 0, 0, 0, 1, 1, 0, 0
	   00 01 01 00 00
 00000AF0  00 01 01 01 01     C         DB 0, 1, 1, 1, 1, 1, 1, 0, 0, 0
	   01 01 00 00 00
 00000AFA  00 00 00 00 00     C         DB 0, 0, 0, 0, 0, 0, 0, 0, 0, 0
	   00 00 00 00 00
 00000B04  00 00 00 00 00     C         DB 0, 0, 0, 0, 0, 0, 0, 0, 0, 0
	   00 00 00 00 00
			      C        
 00000B0E  00 00 00 00 00     C         DB 0, 0, 0, 0, 0, 0, 0, 0, 0, 0
	   00 00 00 00 00
 00000B18  00 00 00 00 00     C         DB 0, 0, 0, 0, 0, 0, 0, 0, 0, 0
	   00 00 00 00 00
 00000B22  00 00 00 00 00     C         DB 0, 0, 0, 0, 0, 0, 0, 0, 0, 0
	   00 00 00 00 00
 00000B2C  00 00 00 00 00     C         DB 0, 0, 0, 0, 0, 0, 0, 0, 0, 0
	   00 00 00 00 00
 00000B36  00 01 01 01 01     C         DB 0, 1, 1, 1, 1, 1, 1, 1, 1, 0
	   01 01 01 01 00
 00000B40  00 01 01 00 00     C         DB 0, 1, 1, 0, 0, 0, 0, 0, 0, 0
	   00 00 00 00 00
 00000B4A  00 01 01 00 00     C         DB 0, 1, 1, 0, 0, 0, 0, 0, 0, 0
	   00 00 00 00 00
 00000B54  00 01 01 00 00     C         DB 0, 1, 1, 0, 0, 0, 0, 0, 0, 0
	   00 00 00 00 00
 00000B5E  00 01 01 00 00     C         DB 0, 1, 1, 0, 0, 0, 0, 0, 0, 0
	   00 00 00 00 00
 00000B68  00 01 01 00 00     C         DB 0, 1, 1, 0, 0, 0, 0, 0, 0, 0
	   00 00 00 00 00
 00000B72  00 01 01 01 01     C         DB 0, 1, 1, 1, 1, 1, 1, 1, 0, 0
	   01 01 01 00 00
 00000B7C  00 01 01 00 00     C         DB 0, 1, 1, 0, 0, 0, 0, 0, 0, 0
	   00 00 00 00 00
 00000B86  00 01 01 00 00     C         DB 0, 1, 1, 0, 0, 0, 0, 0, 0, 0
	   00 00 00 00 00
 00000B90  00 01 01 00 00     C         DB 0, 1, 1, 0, 0, 0, 0, 0, 0, 0
	   00 00 00 00 00
 00000B9A  00 01 01 00 00     C         DB 0, 1, 1, 0, 0, 0, 0, 0, 0, 0
	   00 00 00 00 00
 00000BA4  00 01 01 00 00     C         DB 0, 1, 1, 0, 0, 0, 0, 0, 0, 0
	   00 00 00 00 00
 00000BAE  00 01 01 00 00     C         DB 0, 1, 1, 0, 0, 0, 0, 0, 0, 0
	   00 00 00 00 00
 00000BB8  00 01 01 01 01     C         DB 0, 1, 1, 1, 1, 1, 1, 1, 1, 0
	   01 01 01 01 00
 00000BC2  00 00 00 00 00     C         DB 0, 0, 0, 0, 0, 0, 0, 0, 0, 0
	   00 00 00 00 00
 00000BCC  00 00 00 00 00     C         DB 0, 0, 0, 0, 0, 0, 0, 0, 0, 0
	   00 00 00 00 00
			      C        
 00000BD6  00 00 00 00 00     C         DB 0, 0, 0, 0, 0, 0, 0, 0, 0, 0
	   00 00 00 00 00
 00000BE0  00 00 00 00 00     C         DB 0, 0, 0, 0, 0, 0, 0, 0, 0, 0
	   00 00 00 00 00
 00000BEA  00 00 00 00 00     C         DB 0, 0, 0, 0, 0, 0, 0, 0, 0, 0
	   00 00 00 00 00
 00000BF4  00 00 00 00 00     C         DB 0, 0, 0, 0, 0, 0, 0, 0, 0, 0
	   00 00 00 00 00
 00000BFE  00 01 01 01 01     C         DB 0, 1, 1, 1, 1, 1, 1, 1, 1, 0
	   01 01 01 01 00
 00000C08  00 01 01 00 00     C         DB 0, 1, 1, 0, 0, 0, 0, 0, 0, 0
	   00 00 00 00 00
 00000C12  00 01 01 00 00     C         DB 0, 1, 1, 0, 0, 0, 0, 0, 0, 0
	   00 00 00 00 00
 00000C1C  00 01 01 00 00     C         DB 0, 1, 1, 0, 0, 0, 0, 0, 0, 0
	   00 00 00 00 00
 00000C26  00 01 01 00 00     C         DB 0, 1, 1, 0, 0, 0, 0, 0, 0, 0
	   00 00 00 00 00
 00000C30  00 01 01 00 00     C         DB 0, 1, 1, 0, 0, 0, 0, 0, 0, 0
	   00 00 00 00 00
 00000C3A  00 01 01 00 00     C         DB 0, 1, 1, 0, 0, 0, 0, 0, 0, 0
	   00 00 00 00 00
 00000C44  00 01 01 01 01     C         DB 0, 1, 1, 1, 1, 1, 1, 1, 0, 0
	   01 01 01 00 00
 00000C4E  00 01 01 00 00     C         DB 0, 1, 1, 0, 0, 0, 0, 0, 0, 0
	   00 00 00 00 00
 00000C58  00 01 01 00 00     C         DB 0, 1, 1, 0, 0, 0, 0, 0, 0, 0
	   00 00 00 00 00
 00000C62  00 01 01 00 00     C         DB 0, 1, 1, 0, 0, 0, 0, 0, 0, 0
	   00 00 00 00 00
 00000C6C  00 01 01 00 00     C         DB 0, 1, 1, 0, 0, 0, 0, 0, 0, 0
	   00 00 00 00 00
 00000C76  00 01 01 00 00     C         DB 0, 1, 1, 0, 0, 0, 0, 0, 0, 0
	   00 00 00 00 00
 00000C80  00 01 01 00 00     C         DB 0, 1, 1, 0, 0, 0, 0, 0, 0, 0
	   00 00 00 00 00
 00000C8A  00 00 00 00 00     C         DB 0, 0, 0, 0, 0, 0, 0, 0, 0, 0
	   00 00 00 00 00
 00000C94  00 00 00 00 00     C         DB 0, 0, 0, 0, 0, 0, 0, 0, 0, 0
	   00 00 00 00 00
			      C        
 00000C9E  00 00 00 00 00     C         DB 0, 0, 0, 0, 0, 0, 0, 0, 0, 0
	   00 00 00 00 00
 00000CA8  00 00 00 00 00     C         DB 0, 0, 0, 0, 0, 0, 0, 0, 0, 0
	   00 00 00 00 00
 00000CB2  00 00 00 00 00     C         DB 0, 0, 0, 0, 0, 0, 0, 0, 0, 0
	   00 00 00 00 00
 00000CBC  00 00 00 00 00     C         DB 0, 0, 0, 0, 0, 0, 0, 0, 0, 0
	   00 00 00 00 00
 00000CC6  00 00 00 01 01     C         DB 0, 0, 0, 1, 1, 1, 1, 0, 0, 0
	   01 01 00 00 00
 00000CD0  00 00 01 01 00     C         DB 0, 0, 1, 1, 0, 0, 1, 1, 0, 0
	   00 01 01 00 00
 00000CDA  00 01 01 00 00     C         DB 0, 1, 1, 0, 0, 0, 0, 1, 1, 0
	   00 00 01 01 00
 00000CE4  00 01 01 00 00     C         DB 0, 1, 1, 0, 0, 0, 0, 1, 1, 0
	   00 00 01 01 00
 00000CEE  00 01 01 00 00     C         DB 0, 1, 1, 0, 0, 0, 0, 0, 0, 0
	   00 00 00 00 00
 00000CF8  00 01 01 00 00     C         DB 0, 1, 1, 0, 0, 0, 0, 0, 0, 0
	   00 00 00 00 00
 00000D02  00 01 01 00 00     C         DB 0, 1, 1, 0, 0, 0, 0, 0, 0, 0
	   00 00 00 00 00
 00000D0C  00 01 01 00 00     C         DB 0, 1, 1, 0, 0, 1, 1, 1, 1, 0
	   01 01 01 01 00
 00000D16  00 01 01 00 00     C         DB 0, 1, 1, 0, 0, 0, 0, 1, 1, 0
	   00 00 01 01 00
 00000D20  00 01 01 00 00     C         DB 0, 1, 1, 0, 0, 0, 0, 1, 1, 0
	   00 00 01 01 00
 00000D2A  00 01 01 00 00     C         DB 0, 1, 1, 0, 0, 0, 0, 1, 1, 0
	   00 00 01 01 00
 00000D34  00 01 01 00 00     C         DB 0, 1, 1, 0, 0, 0, 0, 1, 1, 0
	   00 00 01 01 00
 00000D3E  00 00 01 01 00     C         DB 0, 0, 1, 1, 0, 0, 1, 1, 0, 0
	   00 01 01 00 00
 00000D48  00 00 00 01 01     C         DB 0, 0, 0, 1, 1, 1, 1, 0, 0, 0
	   01 01 00 00 00
 00000D52  00 00 00 00 00     C         DB 0, 0, 0, 0, 0, 0, 0, 0, 0, 0
	   00 00 00 00 00
 00000D5C  00 00 00 00 00     C         DB 0, 0, 0, 0, 0, 0, 0, 0, 0, 0
	   00 00 00 00 00
			      C        
 00000D66  00 00 00 00 00     C         DB 0, 0, 0, 0, 0, 0, 0, 0, 0, 0
	   00 00 00 00 00
 00000D70  00 00 00 00 00     C         DB 0, 0, 0, 0, 0, 0, 0, 0, 0, 0
	   00 00 00 00 00
 00000D7A  00 00 00 00 00     C         DB 0, 0, 0, 0, 0, 0, 0, 0, 0, 0
	   00 00 00 00 00
 00000D84  00 00 00 00 00     C         DB 0, 0, 0, 0, 0, 0, 0, 0, 0, 0
	   00 00 00 00 00
 00000D8E  00 01 01 00 00     C         DB 0, 1, 1, 0, 0, 0, 0, 1, 1, 0
	   00 00 01 01 00
 00000D98  00 01 01 00 00     C         DB 0, 1, 1, 0, 0, 0, 0, 1, 1, 0
	   00 00 01 01 00
 00000DA2  00 01 01 00 00     C         DB 0, 1, 1, 0, 0, 0, 0, 1, 1, 0
	   00 00 01 01 00
 00000DAC  00 01 01 00 00     C         DB 0, 1, 1, 0, 0, 0, 0, 1, 1, 0
	   00 00 01 01 00
 00000DB6  00 01 01 00 00     C         DB 0, 1, 1, 0, 0, 0, 0, 1, 1, 0
	   00 00 01 01 00
 00000DC0  00 01 01 00 00     C         DB 0, 1, 1, 0, 0, 0, 0, 1, 1, 0
	   00 00 01 01 00
 00000DCA  00 01 01 01 01     C         DB 0, 1, 1, 1, 1, 1, 1, 1, 1, 0
	   01 01 01 01 00
 00000DD4  00 01 01 00 00     C         DB 0, 1, 1, 0, 0, 0, 0, 1, 1, 0
	   00 00 01 01 00
 00000DDE  00 01 01 00 00     C         DB 0, 1, 1, 0, 0, 0, 0, 1, 1, 0
	   00 00 01 01 00
 00000DE8  00 01 01 00 00     C         DB 0, 1, 1, 0, 0, 0, 0, 1, 1, 0
	   00 00 01 01 00
 00000DF2  00 01 01 00 00     C         DB 0, 1, 1, 0, 0, 0, 0, 1, 1, 0
	   00 00 01 01 00
 00000DFC  00 01 01 00 00     C         DB 0, 1, 1, 0, 0, 0, 0, 1, 1, 0
	   00 00 01 01 00
 00000E06  00 01 01 00 00     C         DB 0, 1, 1, 0, 0, 0, 0, 1, 1, 0
	   00 00 01 01 00
 00000E10  00 01 01 00 00     C         DB 0, 1, 1, 0, 0, 0, 0, 1, 1, 0
	   00 00 01 01 00
 00000E1A  00 00 00 00 00     C         DB 0, 0, 0, 0, 0, 0, 0, 0, 0, 0
	   00 00 00 00 00
 00000E24  00 00 00 00 00     C         DB 0, 0, 0, 0, 0, 0, 0, 0, 0, 0
	   00 00 00 00 00
			      C        
 00000E2E  00 00 00 00 00     C         DB 0, 0, 0, 0, 0, 0, 0, 0, 0, 0
	   00 00 00 00 00
 00000E38  00 00 00 00 00     C         DB 0, 0, 0, 0, 0, 0, 0, 0, 0, 0
	   00 00 00 00 00
 00000E42  00 00 00 00 00     C         DB 0, 0, 0, 0, 0, 0, 0, 0, 0, 0
	   00 00 00 00 00
 00000E4C  00 00 00 00 00     C         DB 0, 0, 0, 0, 0, 0, 0, 0, 0, 0
	   00 00 00 00 00
 00000E56  00 01 01 01 01     C         DB 0, 1, 1, 1, 1, 1, 1, 1, 1, 0
	   01 01 01 01 00
 00000E60  00 00 00 00 01     C         DB 0, 0, 0, 0, 1, 1, 0, 0, 0, 0
	   01 00 00 00 00
 00000E6A  00 00 00 00 01     C         DB 0, 0, 0, 0, 1, 1, 0, 0, 0, 0
	   01 00 00 00 00
 00000E74  00 00 00 00 01     C         DB 0, 0, 0, 0, 1, 1, 0, 0, 0, 0
	   01 00 00 00 00
 00000E7E  00 00 00 00 01     C         DB 0, 0, 0, 0, 1, 1, 0, 0, 0, 0
	   01 00 00 00 00
 00000E88  00 00 00 00 01     C         DB 0, 0, 0, 0, 1, 1, 0, 0, 0, 0
	   01 00 00 00 00
 00000E92  00 00 00 00 01     C         DB 0, 0, 0, 0, 1, 1, 0, 0, 0, 0
	   01 00 00 00 00
 00000E9C  00 00 00 00 01     C         DB 0, 0, 0, 0, 1, 1, 0, 0, 0, 0
	   01 00 00 00 00
 00000EA6  00 00 00 00 01     C         DB 0, 0, 0, 0, 1, 1, 0, 0, 0, 0
	   01 00 00 00 00
 00000EB0  00 00 00 00 01     C         DB 0, 0, 0, 0, 1, 1, 0, 0, 0, 0
	   01 00 00 00 00
 00000EBA  00 00 00 00 01     C         DB 0, 0, 0, 0, 1, 1, 0, 0, 0, 0
	   01 00 00 00 00
 00000EC4  00 00 00 00 01     C         DB 0, 0, 0, 0, 1, 1, 0, 0, 0, 0
	   01 00 00 00 00
 00000ECE  00 00 00 00 01     C         DB 0, 0, 0, 0, 1, 1, 0, 0, 0, 0
	   01 00 00 00 00
 00000ED8  00 01 01 01 01     C         DB 0, 1, 1, 1, 1, 1, 1, 1, 1, 0
	   01 01 01 01 00
 00000EE2  00 00 00 00 00     C         DB 0, 0, 0, 0, 0, 0, 0, 0, 0, 0
	   00 00 00 00 00
 00000EEC  00 00 00 00 00     C         DB 0, 0, 0, 0, 0, 0, 0, 0, 0, 0
	   00 00 00 00 00
			      C        
 00000EF6  00 00 00 00 00     C         DB 0, 0, 0, 0, 0, 0, 0, 0, 0, 0
	   00 00 00 00 00
 00000F00  00 00 00 00 00     C         DB 0, 0, 0, 0, 0, 0, 0, 0, 0, 0
	   00 00 00 00 00
 00000F0A  00 00 00 00 00     C         DB 0, 0, 0, 0, 0, 0, 0, 0, 0, 0
	   00 00 00 00 00
 00000F14  00 00 00 00 00     C         DB 0, 0, 0, 0, 0, 0, 0, 0, 0, 0
	   00 00 00 00 00
 00000F1E  00 00 00 00 00     C         DB 0, 0, 0, 0, 0, 0, 0, 1, 1, 0
	   00 00 01 01 00
 00000F28  00 00 00 00 00     C         DB 0, 0, 0, 0, 0, 0, 0, 1, 1, 0
	   00 00 01 01 00
 00000F32  00 00 00 00 00     C         DB 0, 0, 0, 0, 0, 0, 0, 1, 1, 0
	   00 00 01 01 00
 00000F3C  00 00 00 00 00     C         DB 0, 0, 0, 0, 0, 0, 0, 1, 1, 0
	   00 00 01 01 00
 00000F46  00 00 00 00 00     C         DB 0, 0, 0, 0, 0, 0, 0, 1, 1, 0
	   00 00 01 01 00
 00000F50  00 00 00 00 00     C         DB 0, 0, 0, 0, 0, 0, 0, 1, 1, 0
	   00 00 01 01 00
 00000F5A  00 00 00 00 00     C         DB 0, 0, 0, 0, 0, 0, 0, 1, 1, 0
	   00 00 01 01 00
 00000F64  00 00 00 00 00     C         DB 0, 0, 0, 0, 0, 0, 0, 1, 1, 0
	   00 00 01 01 00
 00000F6E  00 00 00 00 00     C         DB 0, 0, 0, 0, 0, 0, 0, 1, 1, 0
	   00 00 01 01 00
 00000F78  00 00 00 00 00     C         DB 0, 0, 0, 0, 0, 0, 0, 1, 1, 0
	   00 00 01 01 00
 00000F82  00 01 01 00 00     C         DB 0, 1, 1, 0, 0, 0, 0, 1, 1, 0
	   00 00 01 01 00
 00000F8C  00 01 01 00 00     C         DB 0, 1, 1, 0, 0, 0, 0, 1, 1, 0
	   00 00 01 01 00
 00000F96  00 00 01 01 00     C         DB 0, 0, 1, 1, 0, 0, 1, 1, 0, 0
	   00 01 01 00 00
 00000FA0  00 00 00 01 01     C         DB 0, 0, 0, 1, 1, 1, 1, 0, 0, 0
	   01 01 00 00 00
 00000FAA  00 00 00 00 00     C         DB 0, 0, 0, 0, 0, 0, 0, 0, 0, 0
	   00 00 00 00 00
 00000FB4  00 00 00 00 00     C         DB 0, 0, 0, 0, 0, 0, 0, 0, 0, 0
	   00 00 00 00 00
			      C        
 00000FBE  00 00 00 00 00     C         DB 0, 0, 0, 0, 0, 0, 0, 0, 0, 0
	   00 00 00 00 00
 00000FC8  00 00 00 00 00     C         DB 0, 0, 0, 0, 0, 0, 0, 0, 0, 0
	   00 00 00 00 00
 00000FD2  00 00 00 00 00     C         DB 0, 0, 0, 0, 0, 0, 0, 0, 0, 0
	   00 00 00 00 00
 00000FDC  00 00 00 00 00     C         DB 0, 0, 0, 0, 0, 0, 0, 0, 0, 0
	   00 00 00 00 00
 00000FE6  00 01 01 00 00     C         DB 0, 1, 1, 0, 0, 0, 0, 1, 1, 0
	   00 00 01 01 00
 00000FF0  00 01 01 00 00     C         DB 0, 1, 1, 0, 0, 0, 0, 1, 1, 0
	   00 00 01 01 00
 00000FFA  00 01 01 00 00     C         DB 0, 1, 1, 0, 0, 0, 1, 1, 0, 0
	   00 01 01 00 00
 00001004  00 01 01 00 00     C         DB 0, 1, 1, 0, 0, 1, 1, 1, 0, 0
	   01 01 01 00 00
 0000100E  00 01 01 00 00     C         DB 0, 1, 1, 0, 0, 1, 1, 0, 0, 0
	   01 01 00 00 00
 00001018  00 01 01 00 01     C         DB 0, 1, 1, 0, 1, 1, 0, 0, 0, 0
	   01 00 00 00 00
 00001022  00 01 01 01 01     C         DB 0, 1, 1, 1, 1, 0, 0, 0, 0, 0
	   00 00 00 00 00
 0000102C  00 01 01 01 01     C         DB 0, 1, 1, 1, 1, 0, 0, 0, 0, 0
	   00 00 00 00 00
 00001036  00 01 01 00 01     C         DB 0, 1, 1, 0, 1, 1, 0, 0, 0, 0
	   01 00 00 00 00
 00001040  00 01 01 00 00     C         DB 0, 1, 1, 0, 0, 1, 1, 0, 0, 0
	   01 01 00 00 00
 0000104A  00 01 01 00 00     C         DB 0, 1, 1, 0, 0, 1, 1, 1, 0, 0
	   01 01 01 00 00
 00001054  00 01 01 00 00     C         DB 0, 1, 1, 0, 0, 0, 1, 1, 0, 0
	   00 01 01 00 00
 0000105E  00 01 01 00 00     C         DB 0, 1, 1, 0, 0, 0, 0, 1, 1, 0
	   00 00 01 01 00
 00001068  00 01 01 00 00     C         DB 0, 1, 1, 0, 0, 0, 0, 1, 1, 0
	   00 00 01 01 00
 00001072  00 00 00 00 00     C         DB 0, 0, 0, 0, 0, 0, 0, 0, 0, 0
	   00 00 00 00 00
 0000107C  00 00 00 00 00     C         DB 0, 0, 0, 0, 0, 0, 0, 0, 0, 0
	   00 00 00 00 00
			      C        
 00001086  00 00 00 00 00     C         DB 0, 0, 0, 0, 0, 0, 0, 0, 0, 0
	   00 00 00 00 00
 00001090  00 00 00 00 00     C         DB 0, 0, 0, 0, 0, 0, 0, 0, 0, 0
	   00 00 00 00 00
 0000109A  00 00 00 00 00     C         DB 0, 0, 0, 0, 0, 0, 0, 0, 0, 0
	   00 00 00 00 00
 000010A4  00 00 00 00 00     C         DB 0, 0, 0, 0, 0, 0, 0, 0, 0, 0
	   00 00 00 00 00
 000010AE  00 01 01 00 00     C         DB 0, 1, 1, 0, 0, 0, 0, 0, 0, 0
	   00 00 00 00 00
 000010B8  00 01 01 00 00     C         DB 0, 1, 1, 0, 0, 0, 0, 0, 0, 0
	   00 00 00 00 00
 000010C2  00 01 01 00 00     C         DB 0, 1, 1, 0, 0, 0, 0, 0, 0, 0
	   00 00 00 00 00
 000010CC  00 01 01 00 00     C         DB 0, 1, 1, 0, 0, 0, 0, 0, 0, 0
	   00 00 00 00 00
 000010D6  00 01 01 00 00     C         DB 0, 1, 1, 0, 0, 0, 0, 0, 0, 0
	   00 00 00 00 00
 000010E0  00 01 01 00 00     C         DB 0, 1, 1, 0, 0, 0, 0, 0, 0, 0
	   00 00 00 00 00
 000010EA  00 01 01 00 00     C         DB 0, 1, 1, 0, 0, 0, 0, 0, 0, 0
	   00 00 00 00 00
 000010F4  00 01 01 00 00     C         DB 0, 1, 1, 0, 0, 0, 0, 0, 0, 0
	   00 00 00 00 00
 000010FE  00 01 01 00 00     C         DB 0, 1, 1, 0, 0, 0, 0, 0, 0, 0
	   00 00 00 00 00
 00001108  00 01 01 00 00     C         DB 0, 1, 1, 0, 0, 0, 0, 0, 0, 0
	   00 00 00 00 00
 00001112  00 01 01 00 00     C         DB 0, 1, 1, 0, 0, 0, 0, 0, 0, 0
	   00 00 00 00 00
 0000111C  00 01 01 00 00     C         DB 0, 1, 1, 0, 0, 0, 0, 0, 0, 0
	   00 00 00 00 00
 00001126  00 01 01 00 00     C         DB 0, 1, 1, 0, 0, 0, 0, 0, 0, 0
	   00 00 00 00 00
 00001130  00 01 01 01 01     C         DB 0, 1, 1, 1, 1, 1, 1, 1, 1, 0
	   01 01 01 01 00
 0000113A  00 00 00 00 00     C         DB 0, 0, 0, 0, 0, 0, 0, 0, 0, 0
	   00 00 00 00 00
 00001144  00 00 00 00 00     C         DB 0, 0, 0, 0, 0, 0, 0, 0, 0, 0
	   00 00 00 00 00
			      C        
 0000114E  00 00 00 00 00     C         DB 0, 0, 0, 0, 0, 0, 0, 0, 0, 0
	   00 00 00 00 00
 00001158  00 00 00 00 00     C         DB 0, 0, 0, 0, 0, 0, 0, 0, 0, 0
	   00 00 00 00 00
 00001162  00 00 00 00 00     C         DB 0, 0, 0, 0, 0, 0, 0, 0, 0, 0
	   00 00 00 00 00
 0000116C  00 00 00 00 00     C         DB 0, 0, 0, 0, 0, 0, 0, 0, 0, 0
	   00 00 00 00 00
 00001176  00 01 01 00 00     C         DB 0, 1, 1, 0, 0, 0, 0, 1, 1, 0
	   00 00 01 01 00
 00001180  00 01 01 00 00     C         DB 0, 1, 1, 0, 0, 0, 0, 1, 1, 0
	   00 00 01 01 00
 0000118A  00 01 01 00 00     C         DB 0, 1, 1, 0, 0, 0, 0, 1, 1, 0
	   00 00 01 01 00
 00001194  00 01 01 01 00     C         DB 0, 1, 1, 1, 0, 0, 1, 1, 1, 0
	   00 01 01 01 00
 0000119E  00 01 01 01 00     C         DB 0, 1, 1, 1, 0, 0, 1, 1, 1, 0
	   00 01 01 01 00
 000011A8  00 01 01 01 00     C         DB 0, 1, 1, 1, 0, 0, 1, 1, 1, 0
	   00 01 01 01 00
 000011B2  00 01 01 01 01     C         DB 0, 1, 1, 1, 1, 1, 1, 1, 1, 0
	   01 01 01 01 00
 000011BC  00 01 01 00 01     C         DB 0, 1, 1, 0, 1, 1, 0, 1, 1, 0
	   01 00 01 01 00
 000011C6  00 01 01 00 01     C         DB 0, 1, 1, 0, 1, 1, 0, 1, 1, 0
	   01 00 01 01 00
 000011D0  00 01 01 00 01     C         DB 0, 1, 1, 0, 1, 1, 0, 1, 1, 0
	   01 00 01 01 00
 000011DA  00 01 01 00 00     C         DB 0, 1, 1, 0, 0, 0, 0, 1, 1, 0
	   00 00 01 01 00
 000011E4  00 01 01 00 00     C         DB 0, 1, 1, 0, 0, 0, 0, 1, 1, 0
	   00 00 01 01 00
 000011EE  00 01 01 00 00     C         DB 0, 1, 1, 0, 0, 0, 0, 1, 1, 0
	   00 00 01 01 00
 000011F8  00 01 01 00 00     C         DB 0, 1, 1, 0, 0, 0, 0, 1, 1, 0
	   00 00 01 01 00
 00001202  00 00 00 00 00     C         DB 0, 0, 0, 0, 0, 0, 0, 0, 0, 0
	   00 00 00 00 00
 0000120C  00 00 00 00 00     C         DB 0, 0, 0, 0, 0, 0, 0, 0, 0, 0
	   00 00 00 00 00
			      C        
 00001216  00 00 00 00 00     C         DB 0, 0, 0, 0, 0, 0, 0, 0, 0, 0
	   00 00 00 00 00
 00001220  00 00 00 00 00     C         DB 0, 0, 0, 0, 0, 0, 0, 0, 0, 0
	   00 00 00 00 00
 0000122A  00 00 00 00 00     C         DB 0, 0, 0, 0, 0, 0, 0, 0, 0, 0
	   00 00 00 00 00
 00001234  00 00 00 00 00     C         DB 0, 0, 0, 0, 0, 0, 0, 0, 0, 0
	   00 00 00 00 00
 0000123E  00 01 01 00 00     C         DB 0, 1, 1, 0, 0, 0, 0, 1, 1, 0
	   00 00 01 01 00
 00001248  00 01 01 00 00     C         DB 0, 1, 1, 0, 0, 0, 0, 1, 1, 0
	   00 00 01 01 00
 00001252  00 01 01 01 00     C         DB 0, 1, 1, 1, 0, 0, 0, 1, 1, 0
	   00 00 01 01 00
 0000125C  00 01 01 01 00     C         DB 0, 1, 1, 1, 0, 0, 0, 1, 1, 0
	   00 00 01 01 00
 00001266  00 01 01 01 01     C         DB 0, 1, 1, 1, 1, 0, 0, 1, 1, 0
	   00 00 01 01 00
 00001270  00 01 01 00 01     C         DB 0, 1, 1, 0, 1, 0, 0, 1, 1, 0
	   00 00 01 01 00
 0000127A  00 01 01 00 01     C         DB 0, 1, 1, 0, 1, 1, 0, 1, 1, 0
	   01 00 01 01 00
 00001284  00 01 01 00 00     C         DB 0, 1, 1, 0, 0, 1, 0, 1, 1, 0
	   01 00 01 01 00
 0000128E  00 01 01 00 00     C         DB 0, 1, 1, 0, 0, 1, 1, 1, 1, 0
	   01 01 01 01 00
 00001298  00 01 01 00 00     C         DB 0, 1, 1, 0, 0, 0, 1, 1, 1, 0
	   00 01 01 01 00
 000012A2  00 01 01 00 00     C         DB 0, 1, 1, 0, 0, 0, 1, 1, 1, 0
	   00 01 01 01 00
 000012AC  00 01 01 00 00     C         DB 0, 1, 1, 0, 0, 0, 0, 1, 1, 0
	   00 00 01 01 00
 000012B6  00 01 01 00 00     C         DB 0, 1, 1, 0, 0, 0, 0, 1, 1, 0
	   00 00 01 01 00
 000012C0  00 01 01 00 00     C         DB 0, 1, 1, 0, 0, 0, 0, 1, 1, 0
	   00 00 01 01 00
 000012CA  00 00 00 00 00     C         DB 0, 0, 0, 0, 0, 0, 0, 0, 0, 0
	   00 00 00 00 00
 000012D4  00 00 00 00 00     C         DB 0, 0, 0, 0, 0, 0, 0, 0, 0, 0
	   00 00 00 00 00
			      C        
 000012DE  00 00 00 00 00     C         DB 0, 0, 0, 0, 0, 0, 0, 0, 0, 0
	   00 00 00 00 00
 000012E8  00 00 00 00 00     C         DB 0, 0, 0, 0, 0, 0, 0, 0, 0, 0
	   00 00 00 00 00
 000012F2  00 00 00 00 00     C         DB 0, 0, 0, 0, 0, 0, 0, 0, 0, 0
	   00 00 00 00 00
 000012FC  00 00 00 00 00     C         DB 0, 0, 0, 0, 0, 0, 0, 0, 0, 0
	   00 00 00 00 00
 00001306  00 00 00 01 01     C         DB 0, 0, 0, 1, 1, 1, 1, 0, 0, 0
	   01 01 00 00 00
 00001310  00 00 01 01 00     C         DB 0, 0, 1, 1, 0, 0, 1, 1, 0, 0
	   00 01 01 00 00
 0000131A  00 01 01 00 00     C         DB 0, 1, 1, 0, 0, 0, 0, 1, 1, 0
	   00 00 01 01 00
 00001324  00 01 01 00 00     C         DB 0, 1, 1, 0, 0, 0, 0, 1, 1, 0
	   00 00 01 01 00
 0000132E  00 01 01 00 00     C         DB 0, 1, 1, 0, 0, 0, 0, 1, 1, 0
	   00 00 01 01 00
 00001338  00 01 01 00 00     C         DB 0, 1, 1, 0, 0, 0, 0, 1, 1, 0
	   00 00 01 01 00
 00001342  00 01 01 00 00     C         DB 0, 1, 1, 0, 0, 0, 0, 1, 1, 0
	   00 00 01 01 00
 0000134C  00 01 01 00 00     C         DB 0, 1, 1, 0, 0, 0, 0, 1, 1, 0
	   00 00 01 01 00
 00001356  00 01 01 00 00     C         DB 0, 1, 1, 0, 0, 0, 0, 1, 1, 0
	   00 00 01 01 00
 00001360  00 01 01 00 00     C         DB 0, 1, 1, 0, 0, 0, 0, 1, 1, 0
	   00 00 01 01 00
 0000136A  00 01 01 00 00     C         DB 0, 1, 1, 0, 0, 0, 0, 1, 1, 0
	   00 00 01 01 00
 00001374  00 01 01 00 00     C         DB 0, 1, 1, 0, 0, 0, 0, 1, 1, 0
	   00 00 01 01 00
 0000137E  00 00 01 01 00     C         DB 0, 0, 1, 1, 0, 0, 1, 1, 0, 0
	   00 01 01 00 00
 00001388  00 00 00 01 01     C         DB 0, 0, 0, 1, 1, 1, 1, 0, 0, 0
	   01 01 00 00 00
 00001392  00 00 00 00 00     C         DB 0, 0, 0, 0, 0, 0, 0, 0, 0, 0
	   00 00 00 00 00
 0000139C  00 00 00 00 00     C         DB 0, 0, 0, 0, 0, 0, 0, 0, 0, 0
	   00 00 00 00 00
			      C        
 000013A6  00 00 00 00 00     C         DB 0, 0, 0, 0, 0, 0, 0, 0, 0, 0
	   00 00 00 00 00
 000013B0  00 00 00 00 00     C         DB 0, 0, 0, 0, 0, 0, 0, 0, 0, 0
	   00 00 00 00 00
 000013BA  00 00 00 00 00     C         DB 0, 0, 0, 0, 0, 0, 0, 0, 0, 0
	   00 00 00 00 00
 000013C4  00 00 00 00 00     C         DB 0, 0, 0, 0, 0, 0, 0, 0, 0, 0
	   00 00 00 00 00
 000013CE  00 01 01 01 01     C         DB 0, 1, 1, 1, 1, 1, 1, 0, 0, 0
	   01 01 00 00 00
 000013D8  00 01 01 00 00     C         DB 0, 1, 1, 0, 0, 0, 1, 1, 0, 0
	   00 01 01 00 00
 000013E2  00 01 01 00 00     C         DB 0, 1, 1, 0, 0, 0, 0, 1, 1, 0
	   00 00 01 01 00
 000013EC  00 01 01 00 00     C         DB 0, 1, 1, 0, 0, 0, 0, 1, 1, 0
	   00 00 01 01 00
 000013F6  00 01 01 00 00     C         DB 0, 1, 1, 0, 0, 0, 0, 1, 1, 0
	   00 00 01 01 00
 00001400  00 01 01 00 00     C         DB 0, 1, 1, 0, 0, 0, 0, 1, 1, 0
	   00 00 01 01 00
 0000140A  00 01 01 00 00     C         DB 0, 1, 1, 0, 0, 0, 1, 1, 0, 0
	   00 01 01 00 00
 00001414  00 01 01 01 01     C         DB 0, 1, 1, 1, 1, 1, 1, 0, 0, 0
	   01 01 00 00 00
 0000141E  00 01 01 00 00     C         DB 0, 1, 1, 0, 0, 0, 0, 0, 0, 0
	   00 00 00 00 00
 00001428  00 01 01 00 00     C         DB 0, 1, 1, 0, 0, 0, 0, 0, 0, 0
	   00 00 00 00 00
 00001432  00 01 01 00 00     C         DB 0, 1, 1, 0, 0, 0, 0, 0, 0, 0
	   00 00 00 00 00
 0000143C  00 01 01 00 00     C         DB 0, 1, 1, 0, 0, 0, 0, 0, 0, 0
	   00 00 00 00 00
 00001446  00 01 01 00 00     C         DB 0, 1, 1, 0, 0, 0, 0, 0, 0, 0
	   00 00 00 00 00
 00001450  00 01 01 00 00     C         DB 0, 1, 1, 0, 0, 0, 0, 0, 0, 0
	   00 00 00 00 00
 0000145A  00 00 00 00 00     C         DB 0, 0, 0, 0, 0, 0, 0, 0, 0, 0
	   00 00 00 00 00
 00001464  00 00 00 00 00     C         DB 0, 0, 0, 0, 0, 0, 0, 0, 0, 0
	   00 00 00 00 00
			      C        
 0000146E  00 00 00 00 00     C         DB 0, 0, 0, 0, 0, 0, 0, 0, 0, 0
	   00 00 00 00 00
 00001478  00 00 00 00 00     C         DB 0, 0, 0, 0, 0, 0, 0, 0, 0, 0
	   00 00 00 00 00
 00001482  00 00 00 00 00     C         DB 0, 0, 0, 0, 0, 0, 0, 0, 0, 0
	   00 00 00 00 00
 0000148C  00 00 00 00 00     C         DB 0, 0, 0, 0, 0, 0, 0, 0, 0, 0
	   00 00 00 00 00
 00001496  00 00 00 01 01     C         DB 0, 0, 0, 1, 1, 1, 1, 0, 0, 0
	   01 01 00 00 00
 000014A0  00 00 01 01 00     C         DB 0, 0, 1, 1, 0, 0, 1, 1, 0, 0
	   00 01 01 00 00
 000014AA  00 01 01 00 00     C         DB 0, 1, 1, 0, 0, 0, 0, 1, 1, 0
	   00 00 01 01 00
 000014B4  00 01 01 00 00     C         DB 0, 1, 1, 0, 0, 0, 0, 1, 1, 0
	   00 00 01 01 00
 000014BE  00 01 01 00 00     C         DB 0, 1, 1, 0, 0, 0, 0, 1, 1, 0
	   00 00 01 01 00
 000014C8  00 01 01 00 00     C         DB 0, 1, 1, 0, 0, 0, 0, 1, 1, 0
	   00 00 01 01 00
 000014D2  00 01 01 00 00     C         DB 0, 1, 1, 0, 0, 0, 0, 1, 1, 0
	   00 00 01 01 00
 000014DC  00 01 01 00 00     C         DB 0, 1, 1, 0, 0, 0, 0, 1, 1, 0
	   00 00 01 01 00
 000014E6  00 01 01 00 00     C         DB 0, 1, 1, 0, 0, 0, 0, 1, 1, 0
	   00 00 01 01 00
 000014F0  00 01 01 00 00     C         DB 0, 1, 1, 0, 0, 0, 0, 1, 1, 0
	   00 00 01 01 00
 000014FA  00 01 01 00 00     C         DB 0, 1, 1, 0, 0, 0, 0, 1, 1, 0
	   00 00 01 01 00
 00001504  00 01 01 00 00     C         DB 0, 1, 1, 0, 0, 0, 0, 1, 1, 0
	   00 00 01 01 00
 0000150E  00 00 01 01 00     C         DB 0, 0, 1, 1, 0, 0, 1, 1, 0, 0
	   00 01 01 00 00
 00001518  00 00 00 01 01     C         DB 0, 0, 0, 1, 1, 1, 1, 0, 0, 0
	   01 01 00 00 00
 00001522  00 00 00 00 00     C         DB 0, 0, 0, 0, 0, 1, 1, 0, 0, 0
	   01 01 00 00 00
 0000152C  00 00 00 00 00     C         DB 0, 0, 0, 0, 0, 0, 1, 1, 0, 0
	   00 01 01 00 00
			      C        
 00001536  00 00 00 00 00     C         DB 0, 0, 0, 0, 0, 0, 0, 0, 0, 0
	   00 00 00 00 00
 00001540  00 00 00 00 00     C         DB 0, 0, 0, 0, 0, 0, 0, 0, 0, 0
	   00 00 00 00 00
 0000154A  00 00 00 00 00     C         DB 0, 0, 0, 0, 0, 0, 0, 0, 0, 0
	   00 00 00 00 00
 00001554  00 00 00 00 00     C         DB 0, 0, 0, 0, 0, 0, 0, 0, 0, 0
	   00 00 00 00 00
 0000155E  00 01 01 01 01     C         DB 0, 1, 1, 1, 1, 1, 1, 0, 0, 0
	   01 01 00 00 00
 00001568  00 01 01 00 00     C         DB 0, 1, 1, 0, 0, 0, 1, 1, 0, 0
	   00 01 01 00 00
 00001572  00 01 01 00 00     C         DB 0, 1, 1, 0, 0, 0, 0, 1, 1, 0
	   00 00 01 01 00
 0000157C  00 01 01 00 00     C         DB 0, 1, 1, 0, 0, 0, 0, 1, 1, 0
	   00 00 01 01 00
 00001586  00 01 01 00 00     C         DB 0, 1, 1, 0, 0, 0, 0, 1, 1, 0
	   00 00 01 01 00
 00001590  00 01 01 00 00     C         DB 0, 1, 1, 0, 0, 0, 0, 1, 1, 0
	   00 00 01 01 00
 0000159A  00 01 01 00 00     C         DB 0, 1, 1, 0, 0, 0, 1, 1, 0, 0
	   00 01 01 00 00
 000015A4  00 01 01 01 01     C         DB 0, 1, 1, 1, 1, 1, 1, 0, 0, 0
	   01 01 00 00 00
 000015AE  00 01 01 00 00     C         DB 0, 1, 1, 0, 0, 1, 1, 0, 0, 0
	   01 01 00 00 00
 000015B8  00 01 01 00 00     C         DB 0, 1, 1, 0, 0, 0, 1, 1, 0, 0
	   00 01 01 00 00
 000015C2  00 01 01 00 00     C         DB 0, 1, 1, 0, 0, 0, 1, 1, 0, 0
	   00 01 01 00 00
 000015CC  00 01 01 00 00     C         DB 0, 1, 1, 0, 0, 0, 1, 1, 0, 0
	   00 01 01 00 00
 000015D6  00 01 01 00 00     C         DB 0, 1, 1, 0, 0, 0, 1, 1, 0, 0
	   00 01 01 00 00
 000015E0  00 01 01 00 00     C         DB 0, 1, 1, 0, 0, 0, 0, 1, 1, 0
	   00 00 01 01 00
 000015EA  00 00 00 00 00     C         DB 0, 0, 0, 0, 0, 0, 0, 0, 0, 0
	   00 00 00 00 00
 000015F4  00 00 00 00 00     C         DB 0, 0, 0, 0, 0, 0, 0, 0, 0, 0
	   00 00 00 00 00
			      C        
 000015FE  00 00 00 00 00     C         DB 0, 0, 0, 0, 0, 0, 0, 0, 0, 0
	   00 00 00 00 00
 00001608  00 00 00 00 00     C         DB 0, 0, 0, 0, 0, 0, 0, 0, 0, 0
	   00 00 00 00 00
 00001612  00 00 00 00 00     C         DB 0, 0, 0, 0, 0, 0, 0, 0, 0, 0
	   00 00 00 00 00
 0000161C  00 00 00 00 00     C         DB 0, 0, 0, 0, 0, 0, 0, 0, 0, 0
	   00 00 00 00 00
 00001626  00 00 00 01 01     C         DB 0, 0, 0, 1, 1, 1, 1, 0, 0, 0
	   01 01 00 00 00
 00001630  00 00 01 01 00     C         DB 0, 0, 1, 1, 0, 0, 1, 1, 0, 0
	   00 01 01 00 00
 0000163A  00 01 01 00 00     C         DB 0, 1, 1, 0, 0, 0, 0, 1, 1, 0
	   00 00 01 01 00
 00001644  00 01 01 00 00     C         DB 0, 1, 1, 0, 0, 0, 0, 1, 1, 0
	   00 00 01 01 00
 0000164E  00 01 01 00 00     C         DB 0, 1, 1, 0, 0, 0, 0, 0, 0, 0
	   00 00 00 00 00
 00001658  00 01 01 01 01     C         DB 0, 1, 1, 1, 1, 0, 0, 0, 0, 0
	   00 00 00 00 00
 00001662  00 00 01 01 01     C         DB 0, 0, 1, 1, 1, 1, 0, 0, 0, 0
	   01 00 00 00 00
 0000166C  00 00 00 00 01     C         DB 0, 0, 0, 0, 1, 1, 1, 1, 0, 0
	   01 01 01 00 00
 00001676  00 00 00 00 00     C         DB 0, 0, 0, 0, 0, 1, 1, 1, 1, 0
	   01 01 01 01 00
 00001680  00 00 00 00 00     C         DB 0, 0, 0, 0, 0, 0, 0, 1, 1, 0
	   00 00 01 01 00
 0000168A  00 01 01 00 00     C         DB 0, 1, 1, 0, 0, 0, 0, 1, 1, 0
	   00 00 01 01 00
 00001694  00 01 01 00 00     C         DB 0, 1, 1, 0, 0, 0, 0, 1, 1, 0
	   00 00 01 01 00
 0000169E  00 00 01 01 00     C         DB 0, 0, 1, 1, 0, 0, 1, 1, 0, 0
	   00 01 01 00 00
 000016A8  00 00 00 01 01     C         DB 0, 0, 0, 1, 1, 1, 1, 0, 0, 0
	   01 01 00 00 00
 000016B2  00 00 00 00 00     C         DB 0, 0, 0, 0, 0, 0, 0, 0, 0, 0
	   00 00 00 00 00
 000016BC  00 00 00 00 00     C         DB 0, 0, 0, 0, 0, 0, 0, 0, 0, 0
	   00 00 00 00 00
			      C        
 000016C6  00 00 00 00 00     C         DB 0, 0, 0, 0, 0, 0, 0, 0, 0, 0
	   00 00 00 00 00
 000016D0  00 00 00 00 00     C         DB 0, 0, 0, 0, 0, 0, 0, 0, 0, 0
	   00 00 00 00 00
 000016DA  00 00 00 00 00     C         DB 0, 0, 0, 0, 0, 0, 0, 0, 0, 0
	   00 00 00 00 00
 000016E4  00 00 00 00 00     C         DB 0, 0, 0, 0, 0, 0, 0, 0, 0, 0
	   00 00 00 00 00
 000016EE  00 01 01 01 01     C         DB 0, 1, 1, 1, 1, 1, 1, 1, 1, 0
	   01 01 01 01 00
 000016F8  00 00 00 00 01     C         DB 0, 0, 0, 0, 1, 1, 0, 0, 0, 0
	   01 00 00 00 00
 00001702  00 00 00 00 01     C         DB 0, 0, 0, 0, 1, 1, 0, 0, 0, 0
	   01 00 00 00 00
 0000170C  00 00 00 00 01     C         DB 0, 0, 0, 0, 1, 1, 0, 0, 0, 0
	   01 00 00 00 00
 00001716  00 00 00 00 01     C         DB 0, 0, 0, 0, 1, 1, 0, 0, 0, 0
	   01 00 00 00 00
 00001720  00 00 00 00 01     C         DB 0, 0, 0, 0, 1, 1, 0, 0, 0, 0
	   01 00 00 00 00
 0000172A  00 00 00 00 01     C         DB 0, 0, 0, 0, 1, 1, 0, 0, 0, 0
	   01 00 00 00 00
 00001734  00 00 00 00 01     C         DB 0, 0, 0, 0, 1, 1, 0, 0, 0, 0
	   01 00 00 00 00
 0000173E  00 00 00 00 01     C         DB 0, 0, 0, 0, 1, 1, 0, 0, 0, 0
	   01 00 00 00 00
 00001748  00 00 00 00 01     C         DB 0, 0, 0, 0, 1, 1, 0, 0, 0, 0
	   01 00 00 00 00
 00001752  00 00 00 00 01     C         DB 0, 0, 0, 0, 1, 1, 0, 0, 0, 0
	   01 00 00 00 00
 0000175C  00 00 00 00 01     C         DB 0, 0, 0, 0, 1, 1, 0, 0, 0, 0
	   01 00 00 00 00
 00001766  00 00 00 00 01     C         DB 0, 0, 0, 0, 1, 1, 0, 0, 0, 0
	   01 00 00 00 00
 00001770  00 00 00 00 01     C         DB 0, 0, 0, 0, 1, 1, 0, 0, 0, 0
	   01 00 00 00 00
 0000177A  00 00 00 00 00     C         DB 0, 0, 0, 0, 0, 0, 0, 0, 0, 0
	   00 00 00 00 00
 00001784  00 00 00 00 00     C         DB 0, 0, 0, 0, 0, 0, 0, 0, 0, 0
	   00 00 00 00 00
			      C        
 0000178E  00 00 00 00 00     C         DB 0, 0, 0, 0, 0, 0, 0, 0, 0, 0
	   00 00 00 00 00
 00001798  00 00 00 00 00     C         DB 0, 0, 0, 0, 0, 0, 0, 0, 0, 0
	   00 00 00 00 00
 000017A2  00 00 00 00 00     C         DB 0, 0, 0, 0, 0, 0, 0, 0, 0, 0
	   00 00 00 00 00
 000017AC  00 00 00 00 00     C         DB 0, 0, 0, 0, 0, 0, 0, 0, 0, 0
	   00 00 00 00 00
 000017B6  00 01 01 00 00     C         DB 0, 1, 1, 0, 0, 0, 0, 1, 1, 0
	   00 00 01 01 00
 000017C0  00 01 01 00 00     C         DB 0, 1, 1, 0, 0, 0, 0, 1, 1, 0
	   00 00 01 01 00
 000017CA  00 01 01 00 00     C         DB 0, 1, 1, 0, 0, 0, 0, 1, 1, 0
	   00 00 01 01 00
 000017D4  00 01 01 00 00     C         DB 0, 1, 1, 0, 0, 0, 0, 1, 1, 0
	   00 00 01 01 00
 000017DE  00 01 01 00 00     C         DB 0, 1, 1, 0, 0, 0, 0, 1, 1, 0
	   00 00 01 01 00
 000017E8  00 01 01 00 00     C         DB 0, 1, 1, 0, 0, 0, 0, 1, 1, 0
	   00 00 01 01 00
 000017F2  00 01 01 00 00     C         DB 0, 1, 1, 0, 0, 0, 0, 1, 1, 0
	   00 00 01 01 00
 000017FC  00 01 01 00 00     C         DB 0, 1, 1, 0, 0, 0, 0, 1, 1, 0
	   00 00 01 01 00
 00001806  00 01 01 00 00     C         DB 0, 1, 1, 0, 0, 0, 0, 1, 1, 0
	   00 00 01 01 00
 00001810  00 01 01 00 00     C         DB 0, 1, 1, 0, 0, 0, 0, 1, 1, 0
	   00 00 01 01 00
 0000181A  00 01 01 00 00     C         DB 0, 1, 1, 0, 0, 0, 0, 1, 1, 0
	   00 00 01 01 00
 00001824  00 01 01 00 00     C         DB 0, 1, 1, 0, 0, 0, 0, 1, 1, 0
	   00 00 01 01 00
 0000182E  00 00 01 01 00     C         DB 0, 0, 1, 1, 0, 0, 1, 1, 0, 0
	   00 01 01 00 00
 00001838  00 00 00 01 01     C         DB 0, 0, 0, 1, 1, 1, 1, 0, 0, 0
	   01 01 00 00 00
 00001842  00 00 00 00 00     C         DB 0, 0, 0, 0, 0, 0, 0, 0, 0, 0
	   00 00 00 00 00
 0000184C  00 00 00 00 00     C         DB 0, 0, 0, 0, 0, 0, 0, 0, 0, 0
	   00 00 00 00 00
			      C        
 00001856  00 00 00 00 00     C         DB 0, 0, 0, 0, 0, 0, 0, 0, 0, 0
	   00 00 00 00 00
 00001860  00 00 00 00 00     C         DB 0, 0, 0, 0, 0, 0, 0, 0, 0, 0
	   00 00 00 00 00
 0000186A  00 00 00 00 00     C         DB 0, 0, 0, 0, 0, 0, 0, 0, 0, 0
	   00 00 00 00 00
 00001874  00 00 00 00 00     C         DB 0, 0, 0, 0, 0, 0, 0, 0, 0, 0
	   00 00 00 00 00
 0000187E  00 01 01 00 00     C         DB 0, 1, 1, 0, 0, 0, 0, 1, 1, 0
	   00 00 01 01 00
 00001888  00 01 01 00 00     C         DB 0, 1, 1, 0, 0, 0, 0, 1, 1, 0
	   00 00 01 01 00
 00001892  00 01 01 00 00     C         DB 0, 1, 1, 0, 0, 0, 0, 1, 1, 0
	   00 00 01 01 00
 0000189C  00 01 01 00 00     C         DB 0, 1, 1, 0, 0, 0, 0, 1, 1, 0
	   00 00 01 01 00
 000018A6  00 01 01 00 00     C         DB 0, 1, 1, 0, 0, 0, 0, 1, 1, 0
	   00 00 01 01 00
 000018B0  00 01 01 00 00     C         DB 0, 1, 1, 0, 0, 0, 0, 1, 1, 0
	   00 00 01 01 00
 000018BA  00 00 01 01 00     C         DB 0, 0, 1, 1, 0, 0, 1, 1, 0, 0
	   00 01 01 00 00
 000018C4  00 00 01 01 00     C         DB 0, 0, 1, 1, 0, 0, 1, 1, 0, 0
	   00 01 01 00 00
 000018CE  00 00 01 01 00     C         DB 0, 0, 1, 1, 0, 0, 1, 1, 0, 0
	   00 01 01 00 00
 000018D8  00 00 00 01 00     C         DB 0, 0, 0, 1, 0, 0, 1, 0, 0, 0
	   00 01 00 00 00
 000018E2  00 00 00 01 01     C         DB 0, 0, 0, 1, 1, 1, 1, 0, 0, 0
	   01 01 00 00 00
 000018EC  00 00 00 01 01     C         DB 0, 0, 0, 1, 1, 1, 1, 0, 0, 0
	   01 01 00 00 00
 000018F6  00 00 00 00 01     C         DB 0, 0, 0, 0, 1, 1, 0, 0, 0, 0
	   01 00 00 00 00
 00001900  00 00 00 00 01     C         DB 0, 0, 0, 0, 1, 1, 0, 0, 0, 0
	   01 00 00 00 00
 0000190A  00 00 00 00 00     C         DB 0, 0, 0, 0, 0, 0, 0, 0, 0, 0
	   00 00 00 00 00
 00001914  00 00 00 00 00     C         DB 0, 0, 0, 0, 0, 0, 0, 0, 0, 0
	   00 00 00 00 00
			      C        
 0000191E  00 00 00 00 00     C         DB 0, 0, 0, 0, 0, 0, 0, 0, 0, 0
	   00 00 00 00 00
 00001928  00 00 00 00 00     C         DB 0, 0, 0, 0, 0, 0, 0, 0, 0, 0
	   00 00 00 00 00
 00001932  00 00 00 00 00     C         DB 0, 0, 0, 0, 0, 0, 0, 0, 0, 0
	   00 00 00 00 00
 0000193C  00 00 00 00 00     C         DB 0, 0, 0, 0, 0, 0, 0, 0, 0, 0
	   00 00 00 00 00
 00001946  00 01 01 00 00     C         DB 0, 1, 1, 0, 0, 0, 0, 1, 1, 0
	   00 00 01 01 00
 00001950  00 01 01 00 00     C         DB 0, 1, 1, 0, 0, 0, 0, 1, 1, 0
	   00 00 01 01 00
 0000195A  00 01 01 00 00     C         DB 0, 1, 1, 0, 0, 0, 0, 1, 1, 0
	   00 00 01 01 00
 00001964  00 01 01 00 00     C         DB 0, 1, 1, 0, 0, 0, 0, 1, 1, 0
	   00 00 01 01 00
 0000196E  00 01 01 00 00     C         DB 0, 1, 1, 0, 0, 0, 0, 1, 1, 0
	   00 00 01 01 00
 00001978  00 01 01 00 00     C         DB 0, 1, 1, 0, 0, 0, 0, 1, 1, 0
	   00 00 01 01 00
 00001982  00 01 01 00 01     C         DB 0, 1, 1, 0, 1, 1, 0, 1, 1, 0
	   01 00 01 01 00
 0000198C  00 01 01 00 01     C         DB 0, 1, 1, 0, 1, 1, 0, 1, 1, 0
	   01 00 01 01 00
 00001996  00 01 01 00 01     C         DB 0, 1, 1, 0, 1, 1, 0, 1, 1, 0
	   01 00 01 01 00
 000019A0  00 00 01 01 00     C         DB 0, 0, 1, 1, 0, 0, 1, 1, 0, 0
	   00 01 01 00 00
 000019AA  00 00 01 01 00     C         DB 0, 0, 1, 1, 0, 0, 1, 1, 0, 0
	   00 01 01 00 00
 000019B4  00 00 01 01 00     C         DB 0, 0, 1, 1, 0, 0, 1, 1, 0, 0
	   00 01 01 00 00
 000019BE  00 00 01 01 00     C         DB 0, 0, 1, 1, 0, 0, 1, 1, 0, 0
	   00 01 01 00 00
 000019C8  00 00 01 01 00     C         DB 0, 0, 1, 1, 0, 0, 1, 1, 0, 0
	   00 01 01 00 00
 000019D2  00 00 00 00 00     C         DB 0, 0, 0, 0, 0, 0, 0, 0, 0, 0
	   00 00 00 00 00
 000019DC  00 00 00 00 00     C         DB 0, 0, 0, 0, 0, 0, 0, 0, 0, 0
	   00 00 00 00 00
			      C        
 000019E6  00 00 00 00 00     C         DB 0, 0, 0, 0, 0, 0, 0, 0, 0, 0
	   00 00 00 00 00
 000019F0  00 00 00 00 00     C         DB 0, 0, 0, 0, 0, 0, 0, 0, 0, 0
	   00 00 00 00 00
 000019FA  00 00 00 00 00     C         DB 0, 0, 0, 0, 0, 0, 0, 0, 0, 0
	   00 00 00 00 00
 00001A04  00 00 00 00 00     C         DB 0, 0, 0, 0, 0, 0, 0, 0, 0, 0
	   00 00 00 00 00
 00001A0E  00 01 01 00 00     C         DB 0, 1, 1, 0, 0, 0, 0, 1, 1, 0
	   00 00 01 01 00
 00001A18  00 01 01 00 00     C         DB 0, 1, 1, 0, 0, 0, 0, 1, 1, 0
	   00 00 01 01 00
 00001A22  00 01 01 00 00     C         DB 0, 1, 1, 0, 0, 0, 0, 1, 1, 0
	   00 00 01 01 00
 00001A2C  00 01 01 00 00     C         DB 0, 1, 1, 0, 0, 0, 0, 1, 1, 0
	   00 00 01 01 00
 00001A36  00 00 01 01 00     C         DB 0, 0, 1, 1, 0, 0, 1, 1, 0, 0
	   00 01 01 00 00
 00001A40  00 00 01 01 00     C         DB 0, 0, 1, 1, 0, 0, 1, 1, 0, 0
	   00 01 01 00 00
 00001A4A  00 00 00 01 01     C         DB 0, 0, 0, 1, 1, 1, 1, 0, 0, 0
	   01 01 00 00 00
 00001A54  00 00 00 01 01     C         DB 0, 0, 0, 1, 1, 1, 1, 0, 0, 0
	   01 01 00 00 00
 00001A5E  00 00 01 01 00     C         DB 0, 0, 1, 1, 0, 0, 1, 1, 0, 0
	   00 01 01 00 00
 00001A68  00 00 01 01 00     C         DB 0, 0, 1, 1, 0, 0, 1, 1, 0, 0
	   00 01 01 00 00
 00001A72  00 01 01 00 00     C         DB 0, 1, 1, 0, 0, 0, 0, 1, 1, 0
	   00 00 01 01 00
 00001A7C  00 01 01 00 00     C         DB 0, 1, 1, 0, 0, 0, 0, 1, 1, 0
	   00 00 01 01 00
 00001A86  00 01 01 00 00     C         DB 0, 1, 1, 0, 0, 0, 0, 1, 1, 0
	   00 00 01 01 00
 00001A90  00 01 01 00 00     C         DB 0, 1, 1, 0, 0, 0, 0, 1, 1, 0
	   00 00 01 01 00
 00001A9A  00 00 00 00 00     C         DB 0, 0, 0, 0, 0, 0, 0, 0, 0, 0
	   00 00 00 00 00
 00001AA4  00 00 00 00 00     C         DB 0, 0, 0, 0, 0, 0, 0, 0, 0, 0
	   00 00 00 00 00
			      C        
 00001AAE  00 00 00 00 00     C         DB 0, 0, 0, 0, 0, 0, 0, 0, 0, 0
	   00 00 00 00 00
 00001AB8  00 00 00 00 00     C         DB 0, 0, 0, 0, 0, 0, 0, 0, 0, 0
	   00 00 00 00 00
 00001AC2  00 00 00 00 00     C         DB 0, 0, 0, 0, 0, 0, 0, 0, 0, 0
	   00 00 00 00 00
 00001ACC  00 00 00 00 00     C         DB 0, 0, 0, 0, 0, 0, 0, 0, 0, 0
	   00 00 00 00 00
 00001AD6  00 01 01 00 00     C         DB 0, 1, 1, 0, 0, 0, 0, 1, 1, 0
	   00 00 01 01 00
 00001AE0  00 01 01 00 00     C         DB 0, 1, 1, 0, 0, 0, 0, 1, 1, 0
	   00 00 01 01 00
 00001AEA  00 01 01 00 00     C         DB 0, 1, 1, 0, 0, 0, 0, 1, 1, 0
	   00 00 01 01 00
 00001AF4  00 01 01 00 00     C         DB 0, 1, 1, 0, 0, 0, 0, 1, 1, 0
	   00 00 01 01 00
 00001AFE  00 01 01 00 00     C         DB 0, 1, 1, 0, 0, 0, 0, 1, 1, 0
	   00 00 01 01 00
 00001B08  00 01 01 00 00     C         DB 0, 1, 1, 0, 0, 0, 0, 1, 1, 0
	   00 00 01 01 00
 00001B12  00 00 01 01 00     C         DB 0, 0, 1, 1, 0, 0, 1, 1, 0, 0
	   00 01 01 00 00
 00001B1C  00 00 01 01 01     C         DB 0, 0, 1, 1, 1, 1, 1, 1, 0, 0
	   01 01 01 00 00
 00001B26  00 00 00 01 01     C         DB 0, 0, 0, 1, 1, 1, 1, 0, 0, 0
	   01 01 00 00 00
 00001B30  00 00 00 00 01     C         DB 0, 0, 0, 0, 1, 1, 0, 0, 0, 0
	   01 00 00 00 00
 00001B3A  00 00 00 00 01     C         DB 0, 0, 0, 0, 1, 1, 0, 0, 0, 0
	   01 00 00 00 00
 00001B44  00 00 00 00 01     C         DB 0, 0, 0, 0, 1, 1, 0, 0, 0, 0
	   01 00 00 00 00
 00001B4E  00 00 00 00 01     C         DB 0, 0, 0, 0, 1, 1, 0, 0, 0, 0
	   01 00 00 00 00
 00001B58  00 00 00 00 01     C         DB 0, 0, 0, 0, 1, 1, 0, 0, 0, 0
	   01 00 00 00 00
 00001B62  00 00 00 00 00     C         DB 0, 0, 0, 0, 0, 0, 0, 0, 0, 0
	   00 00 00 00 00
 00001B6C  00 00 00 00 00     C         DB 0, 0, 0, 0, 0, 0, 0, 0, 0, 0
	   00 00 00 00 00
			      C        
 00001B76  00 00 00 00 00     C         DB 0, 0, 0, 0, 0, 0, 0, 0, 0, 0
	   00 00 00 00 00
 00001B80  00 00 00 00 00     C         DB 0, 0, 0, 0, 0, 0, 0, 0, 0, 0
	   00 00 00 00 00
 00001B8A  00 00 00 00 00     C         DB 0, 0, 0, 0, 0, 0, 0, 0, 0, 0
	   00 00 00 00 00
 00001B94  00 00 00 00 00     C         DB 0, 0, 0, 0, 0, 0, 0, 0, 0, 0
	   00 00 00 00 00
 00001B9E  00 01 01 01 01     C         DB 0, 1, 1, 1, 1, 1, 1, 1, 1, 0
	   01 01 01 01 00
 00001BA8  00 00 00 00 00     C         DB 0, 0, 0, 0, 0, 0, 0, 1, 1, 0
	   00 00 01 01 00
 00001BB2  00 00 00 00 00     C         DB 0, 0, 0, 0, 0, 0, 0, 1, 1, 0
	   00 00 01 01 00
 00001BBC  00 00 00 00 00     C         DB 0, 0, 0, 0, 0, 0, 1, 1, 0, 0
	   00 01 01 00 00
 00001BC6  00 00 00 00 00     C         DB 0, 0, 0, 0, 0, 0, 1, 1, 0, 0
	   00 01 01 00 00
 00001BD0  00 00 00 00 00     C         DB 0, 0, 0, 0, 0, 1, 1, 0, 0, 0
	   01 01 00 00 00
 00001BDA  00 00 00 00 01     C         DB 0, 0, 0, 0, 1, 1, 0, 0, 0, 0
	   01 00 00 00 00
 00001BE4  00 00 00 01 01     C         DB 0, 0, 0, 1, 1, 0, 0, 0, 0, 0
	   00 00 00 00 00
 00001BEE  00 00 00 01 01     C         DB 0, 0, 0, 1, 1, 0, 0, 0, 0, 0
	   00 00 00 00 00
 00001BF8  00 00 01 01 00     C         DB 0, 0, 1, 1, 0, 0, 0, 0, 0, 0
	   00 00 00 00 00
 00001C02  00 00 01 01 00     C         DB 0, 0, 1, 1, 0, 0, 0, 0, 0, 0
	   00 00 00 00 00
 00001C0C  00 01 01 00 00     C         DB 0, 1, 1, 0, 0, 0, 0, 0, 0, 0
	   00 00 00 00 00
 00001C16  00 01 01 00 00     C         DB 0, 1, 1, 0, 0, 0, 0, 0, 0, 0
	   00 00 00 00 00
 00001C20  00 01 01 01 01     C         DB 0, 1, 1, 1, 1, 1, 1, 1, 1, 0
	   01 01 01 01 00
 00001C2A  00 00 00 00 00     C         DB 0, 0, 0, 0, 0, 0, 0, 0, 0, 0
	   00 00 00 00 00
 00001C34  00 00 00 00 00     C         DB 0, 0, 0, 0, 0, 0, 0, 0, 0, 0
	   00 00 00 00 00
			      C 		
 00001C3E  00 00 00 00 00     C 		DB 0, 0, 0, 0, 0, 0, 0, 0, 0, 0
	   00 00 00 00 00
 00001C48  00 00 00 00 00     C         DB 0, 0, 0, 0, 0, 0, 0, 0, 0, 0
	   00 00 00 00 00
 00001C52  00 00 00 00 00     C         DB 0, 0, 0, 0, 0, 0, 0, 0, 0, 0
	   00 00 00 00 00
 00001C5C  00 00 00 00 00     C         DB 0, 0, 0, 0, 0, 0, 0, 0, 0, 0
	   00 00 00 00 00
 00001C66  00 00 00 00 00     C         DB 0, 0, 0, 0, 0, 0, 0, 0, 0, 0
	   00 00 00 00 00
 00001C70  00 00 00 00 00     C         DB 0, 0, 0, 0, 0, 0, 0, 0, 0, 0
	   00 00 00 00 00
 00001C7A  00 00 00 00 00     C         DB 0, 0, 0, 0, 0, 0, 0, 0, 0, 0
	   00 00 00 00 00
 00001C84  00 00 00 00 00     C         DB 0, 0, 0, 0, 0, 0, 0, 0, 0, 0
	   00 00 00 00 00
 00001C8E  00 00 00 00 00     C         DB 0, 0, 0, 0, 0, 0, 0, 0, 0, 0
	   00 00 00 00 00
 00001C98  00 00 00 00 00     C         DB 0, 0, 0, 0, 0, 0, 0, 0, 0, 0
	   00 00 00 00 00
 00001CA2  00 00 00 00 00     C         DB 0, 0, 0, 0, 0, 0, 0, 0, 0, 0
	   00 00 00 00 00
 00001CAC  00 00 00 00 00     C         DB 0, 0, 0, 0, 0, 0, 0, 0, 0, 0
	   00 00 00 00 00
 00001CB6  00 00 00 00 00     C         DB 0, 0, 0, 0, 0, 0, 0, 0, 0, 0
	   00 00 00 00 00
 00001CC0  00 00 00 00 00     C         DB 0, 0, 0, 0, 0, 0, 0, 0, 0, 0
	   00 00 00 00 00
 00001CCA  00 00 00 00 00     C         DB 0, 0, 0, 0, 0, 0, 0, 0, 0, 0
	   00 00 00 00 00
 00001CD4  00 00 00 00 00     C         DB 0, 0, 0, 0, 0, 0, 0, 0, 0, 0
	   00 00 00 00 00
 00001CDE  00 00 00 00 00     C         DB 0, 0, 0, 0, 0, 0, 0, 0, 0, 0
	   00 00 00 00 00
 00001CE8  00 00 00 00 00     C         DB 0, 0, 0, 0, 0, 0, 0, 0, 0, 0
	   00 00 00 00 00
 00001CF2  00 00 00 00 00     C         DB 0, 0, 0, 0, 0, 0, 0, 0, 0, 0
	   00 00 00 00 00
 00001CFC  00 00 00 00 00     C         DB 0, 0, 0, 0, 0, 0, 0, 0, 0, 0
	   00 00 00 00 00
			      C 		
			      C        
			      C 

 = 00000352			button_up_x EQU area_width - 100	;Sageata Sus
 = 00000320			button_up_y EQU area_height - 150

 = 00000320			button_left_x EQU area_width - 150	;Sageata Stanga
 = 00000352			button_left_y EQU area_height - 100

 = 00000352			button_down_x EQU area_width - 100	;Sageata Jos
 = 00000384			button_down_y EQU area_height - 50

 = 00000384			button_right_x EQU area_width - 50	;Sageata Dreapta
 = 00000352			button_right_y EQU area_height - 100

 = 00000352			button_bomb_x EQU area_width - 100	;Buton Bomba
 = 00000352			button_bomb_y EQU area_height - 100

 00001D06 00000032		bomberman_x DD 50		;coordonate Bomberman
 00001D0A 00000032		bomberman_y DD 50

 00001D0E 00			bomb_check DB 0	;verifica daca se poate plasa bomba
 00001D0F 00000000		bomb_x DD 0	;coord bomba
 00001D13 00000000		bomb_y DD 0
 00001D17 00000000		explosion_check DD 0 ;verifica daca exista o explozie(pentru stergere)

 00001D1B 00000352		enemy_x DD area_width-100,area_width-500	;coord inamic
	   000001C2
 00001D23 000002EE		enemy_y DD area_height-200,area_width-500
	   000001C2
 00001D2B 00000001		enemy_alive DD 1, 1	;verifica daca inamicul traieste
	   00000001

 00001D33 00000000		game_over_check DD 0 ; verifica daca jucatorul a pierdut

 00001D37 00000000		aux DD 0	;variabile auxiliare
 00001D3B 00000000		aux1 DD 0
 00001D3F 00000000		aux2 DD 0
 00001D43 00000173		random_aux DD 371
				;;;;;;;;;;;;;;;;;;;;;;;;;;;;;;;;;;;;;;;;;;;;;;;;;;;;;;;;;;;;;;;;;;;;;;;;;;;;;;;;;;;;;;;;;;;;;;;;;;;;
																									;FUNCTIE CUVINTE
 00000000			.code

				; procedura make_text afiseaza o litera sau o cifra la coordonatele date
				; arg1 - simbolul de afisat (litera sau cifra)
				; arg2 - pointer la vectorul de pixeli
				; arg3 - pos_x
				; arg4 - pos_y
 00000000			make_text proc
 00000000  55				push ebp
 00000001  8B EC			mov ebp, esp
 00000003  60				pusha
					
 00000004  8B 45 08			mov eax, [ebp+arg1] ; citim simbolul de afisat
 00000007  83 F8 41			cmp eax, 'A'
 0000000A  7C 10			jl make_digit
 0000000C  83 F8 5A			cmp eax, 'Z'
 0000000F  7F 0B			jg make_digit
 00000011  83 E8 41			sub eax, 'A'
 00000014  8D 35 000007EE R		lea esi, letters
 0000001A  EB 20			jmp draw_text
 0000001C			make_digit:
 0000001C  83 F8 30			cmp eax, '0'
 0000001F  7C 10			jl make_space
 00000021  83 F8 39			cmp eax, '9'
 00000024  7F 0B			jg make_space
 00000026  83 E8 30			sub eax, '0'
 00000029  8D 35 0000001E R		lea esi, digits
 0000002F  EB 0B			jmp draw_text
 00000031			make_space:	
 00000031  B8 0000001A			mov eax, 26 ; de la 0 pana la 25 sunt litere, 26 e space
 00000036  8D 35 000007EE R		lea esi, letters
					
 0000003C			draw_text:
 0000003C  BB 0000000A			mov ebx, symbol_width
 00000041  F7 E3			mul ebx
 00000043  BB 00000014			mov ebx, symbol_height
 00000048  F7 E3			mul ebx
 0000004A  03 F0			add esi, eax
 0000004C  B9 00000014			mov ecx, symbol_height
 00000051			bucla_simbol_linii:
 00000051  8B 7D 0C			mov edi, [ebp+arg2] ; pointer la matricea de pixeli
 00000054  8B 45 14			mov eax, [ebp+arg4] ; pointer la coord y
 00000057  83 C0 14			add eax, symbol_height
 0000005A  2B C1			sub eax, ecx
 0000005C  BB 000003B6			mov ebx, area_width														
 00000061  F7 E3			mul ebx
 00000063  03 45 10			add eax, [ebp+arg3] ; pointer la coord x
 00000066  C1 E0 02			shl eax, 2 ; inmultim cu 4, avem un DWORD per pixel
 00000069  03 F8			add edi, eax
 0000006B  51				push ecx
 0000006C  B9 0000000A			mov ecx, symbol_width
 00000071			bucla_simbol_coloane:
 00000071  80 3E 00			cmp byte ptr [esi], 0
 00000074  74 08			je simbol_pixel_alb
 00000076  C7 07 00000000		mov dword ptr [edi], 0
 0000007C  EB 06			jmp simbol_pixel_next
 0000007E			simbol_pixel_alb:
 0000007E  C7 07 00A7A6A5		mov dword ptr [edi], 0A7A6A5h
 00000084			simbol_pixel_next:
 00000084  46				inc esi
 00000085  83 C7 04			add edi, 4
 00000088  E2 E7			loop bucla_simbol_coloane
 0000008A  59				pop ecx
 0000008B  E2 C4			loop bucla_simbol_linii
 0000008D  61				popa
 0000008E  8B E5			mov esp, ebp
 00000090  5D				pop ebp
 00000091  C3				ret
 00000092			make_text endp

				;;;;;;;;;;;;;;;;;;;;;;;;;;;;;;;;;;;;;;;;;;;;;;;;;;;;;;;;;;;;;;;;;;;;;;;;;;;;;;;;;;;;;;;;;;;;;;;;;;;;
																										   ;MACROURI
				; un macro ca sa apelam mai usor desenarea simbolului
				make_text_macro macro symbol, drawArea, x, y
					push y
					push x
					push drawArea
					push symbol
					call make_text
					add esp, 16
				endm

				; deseneaza o linie orizontala
				line_horizontal macro x, y, len, color
				local bucla_linie
					mov eax, y; EAX = y
					mov ebx, area_width
	mul ebx; EAX = y*area_width
					add EAX, x; EAX = y*area_width+x
					shl eax, 2; EAX = (y*area_width+x)*4
					add EAX, area
					
					mov ECX, len
				bucla_linie:
					mov dword ptr [eax], color
					add EAX,4
				loop bucla_linie
				endm

				;deseneaza o linie verticala
				line_vertical macro x, y, len, color									
				local bucla_line
					mov eax, y; EAX = y
					mov ebx, area_width
					mul ebx; EAX = y*area_width
					add EAX, x; EAX = y*area_width+x
					shl eax, 2; EAX = (y*area_width+x)*4
					add EAX, area
					
					mov ECX, len
				bucla_line:
					mov dword ptr [eax], color
					add EAX,area_width*4
				loop bucla_line
				endm

				;deseneaza un patrat(folosind liniile anterioare)
				draw_square macro x,y, color
				local square_loop
					mov EDI, y
					mov ESI, 0
					
					square_loop:
					line_horizontal x,EDI, 50, color
					inc ESI
					inc EDI
					cmp ESI, 50
					jne square_loop
				endm

				;macro ce deseneaza sageti
				draw_arrow macro dir,x,y,color
				local up, left, down, right, finish
					mov aux1, dir
					mov ESI, 50
					mov EDI, x
					mov aux, y
					
					cmp aux1, 1
					je up
					cmp aux1, 2
					je left
					cmp aux1, 3
					je down
					cmp aux1, 4
					je right
					
					down:
					line_horizontal EDI, aux, ESI, color
					inc EDI
					sub ESI, 2
					inc aux
					cmp ESI, 0
					jne down
					jmp finish
					
					up:
					line_horizontal EDI, aux, ESI, color
					inc EDI
					sub ESI, 2
					dec aux
					cmp ESI, 0
					jne up
					jmp finish
					
					left:
					line_vertical EDI, aux, ESI, color
					dec EDI
					sub ESI, 2
					inc aux
					cmp ESI, 0
					jne left
					jmp finish
					
					right:
					line_vertical EDI, aux, ESI, color
					inc EDI
					sub ESI, 2
					inc aux
					cmp ESI, 0
					jne right
					
					finish:
				endm

				;macro ce verifica apasarea butoanelor de directie
				press_button macro x,y,button_x,button_y, diff_x, diff_y
				local button_fail, bomb_case, defeat
					mov EAX, x
					cmp EAX, button_x
					jl button_fail
					cmp EAX, button_x+50
					jg button_fail
					mov EAX, y
					cmp EAX, button_y
					jl button_fail
					cmp EAX, button_y+50
					jg button_fail
					
					calculate_pozition bomberman_x,bomberman_y,diff_x, diff_y
					cmp dword ptr [EAX], 0FF69B4h
					je defeat
					
					calculate_pozition bomberman_x,bomberman_y,diff_x, diff_y
					cmp dword ptr [EAX], 0FFFFFFh
					jne button_fail
					
					calculate_pozition bomberman_x,bomberman_y,diff_x, diff_y
					cmp dword ptr [EAX], 0h
					je bomb_case
					
					draw_square bomberman_x, bomberman_y, 0FFFFFFh
					bomb_case:
					add bomberman_y, diff_y
					add bomberman_x, diff_x
					draw_square bomberman_x, bomberman_y, 0FF0000h
					jmp button_fail
					
					defeat:
					game_over
					
					button_fail:
				endm

				;macro ce verifica apasarea butonului bomba
				press_button_bomb macro x,y
				local button_fail
					mov EAX, x
					cmp EAX, button_bomb_x
					jl button_fail
					cmp EAX, button_bomb_x+50
					jg button_fail
					mov EAX, y
					cmp EAX, button_bomb_y
					jl button_fail
					cmp EAX, button_bomb_y+50
					jg button_fail
					
					cmp bomb_check, 0
					jne button_fail
					
					draw_square bomberman_x, bomberman_y, 0h
					mov bomb_check,1 
					mov EAX, bomberman_x
					mov bomb_x, EAX
					mov EAX, bomberman_y
					mov bomb_y, EAX
					
					button_fail:
				endm

				;macro ce calculeaza pozitia in functie de coordonate
				calculate_pozition macro x,y,diff_x,diff_y
					mov EAX, y; EAX = y
					add EAX, diff_y
					mov EBX, area_width
					mul EBX; EAX = y*area_width 
					add EAX, x; EAX = y*area_width+x
					add EAX, diff_x
					shl EAX, 2; EAX = (y*area_width+x)*4
					add EAX, area
				endm

				;macro in cazul in care jucatorul pierde
				game_over macro
					mov enemy_alive,0
					mov bomb_check,0 

					mov eax, area_width
					mov ebx, area_height
					mul ebx
					shl eax, 2
					push eax
					push 0A7A6A5h ;coloram toata harta gri
					push area
					call memset
					add esp, 12
					
					make_text_macro 'D', area, area_width/2-25, area_height/2
					make_text_macro 'E', area, area_width/2-15, area_height/2
					make_text_macro 'F', area, area_width/2-5, area_height/2
					make_text_macro 'E', area, area_width/2+5, area_height/2
					make_text_macro 'A', area, area_width/2+15, area_height/2
					make_text_macro 'T', area, area_width/2+25, area_height/2
					
					mov game_over_check, 1
					
					
				endm

				;macro pentru zonele afectate de explozie
				explosion_radius macro x, y, diff_x, diff_y, color
				local unbreakable, explosion_loop, breakable, crate, defeat, enemy
					mov ESI, bomb_x
					mov aux1, ESI
					mov ESI, bomb_y
					mov aux2, ESI
					
					mov aux, 0
					explosion_loop:
					calculate_pozition x,y, diff_x, diff_y
					cmp dword ptr [EAX], 0FF69B4h
					je enemy
					cmp dword ptr [EAX], 0FF0000h
					je defeat
					cmp dword ptr [EAX], 0A0522Dh
					je crate
					cmp dword ptr [EAX], 0F59B00h
					je breakable
					cmp dword ptr [EAX], 0FFFFFFh
					jne unbreakable
					breakable:
					add x, diff_x
					add y, diff_y
					draw_square x, y, color
					inc aux
					cmp aux, 4
					jne explosion_loop
					jmp unbreakable
					
					defeat:
					game_over
					jmp unbreakable
					
					crate:
					add x, diff_x
					add y, diff_y
					draw_square x, y, 0FFFFFFh
					jmp unbreakable
					
					enemy:
					add x, diff_x
					add y, diff_y
					draw_square x, y, 0FFFFFFh
					mov enemy_alive,0
					
					unbreakable:
					
					mov ESI, aux1
					mov bomb_x, ESI
					mov ESI, aux2
					mov bomb_y,ESI
					
				endm

				;macro-ul de control al exploziei
				explosion macro x,y, color
				local no_defeat, finish
					
					explosion_radius x, y, 50, 0, color
					explosion_radius x, y, -50, 0, color
					explosion_radius x, y, 0, -50, color
					explosion_radius x, y, 0, 50, color
					
					mov EAX, bomberman_x
					cmp bomb_x, EAX
					jne no_defeat
					mov EAX, bomberman_y
					cmp bomb_y, EAX
					jne no_defeat
					game_over
					jmp finish
					
					no_defeat:
					calculate_pozition bomb_x,bomb_y,0,0
					cmp dword ptr [eax], 0FFFFFFh
					jne finish
					draw_square bomb_x,bomb_y, color
					finish:
				endm

				;macro ce determina functionarea bombei
				bomb_mechanism macro 
					cmp explosion_check,1
					je explosion_timer
					
					cmp bomb_check,1
					jne no_bomb
					
					;flick
					calculate_pozition bomb_x,bomb_y, 0, 0
					cmp dword ptr [EAX], 0h
					jne black
					draw_square bomb_x, bomb_y, 0F59B00h
					jmp off
					black:
					draw_square bomb_x, bomb_y, 0h
					off:
					
					cmp counterBomb, 10
					jne no_explosion
					
					mov counterBomb, 0
					
					mov explosion_check,1
					;explozia
					explosion bomb_x, bomb_y, 0F59B00h
					
					explosion_timer:
					inc counterExplosion
					cmp counterExplosion, 5
					jne no_bomb
					explosion bomb_x, bomb_y, 0FFFFFFh
					draw_square bomb_x,bomb_y, 0FFFFFFh
					mov counterExplosion, 0
					mov explosion_check,0
					mov bomb_check, 0
					
					jmp no_bomb
					
					no_explosion:
					inc counterBomb
					
					no_bomb:
				endm

				;macro ce determina o valoare aleatoare de (0-3)
				random macro
					mov EAX, random_aux
					mul bomberman_y
					add EAX, bomberman_x
					mov aux1,773
					mov EDX, 0
					div aux1
					mov random_aux, EDX
					
					mov EAX, random_aux
					mov EBX,4
					mov EDX,0
					div EBX
				endm

				;macro ce determina miscarile inamicului
				enemy_movement macro
				local up,left,down,right, skip, defeat, reroll, no_movement, reset
					inc counterEnemy
					cmp counterEnemy, 5
					jne no_movement
					
					reroll:	
					random
					
					cmp EDX,0
					je up
					cmp EDX, 1
					je left
					cmp EDX, 2
					je down
					cmp EDX, 3
					je right
					
					up:
					mov aux, 0
					mov aux1, -50
					jmp skip
					
					left:
					mov aux, -50
					mov aux1, 0
					jmp skip
					
					right:
					mov aux, 50
					mov aux1, 0
					jmp skip
					
					down:
					mov aux, 0
					mov aux1, 50
					jmp skip
					
					skip:
					mov counterEnemy,0
					calculate_pozition enemy_x,enemy_y,aux, aux1
					cmp dword ptr [EAX], 0FF0000h
					je defeat
					
					calculate_pozition enemy_x,enemy_y,aux,aux1
					cmp dword ptr [EAX], 0FFFFFFh
					jne reroll
					
					reset:
					draw_square enemy_x, enemy_y, 0FFFFFFh
					
					mov EAX, aux
					add enemy_x, EAX
					mov EAX, aux1
					add enemy_y, EAX
					draw_square enemy_x, enemy_y, 0FF69B4h
					jmp no_movement
					
					defeat:
					game_over
					
					no_movement:
					
				endm

				;;;;;;;;;;;;;;;;;;;;;;;;;;;;;;;;;;;;;;;;;;;;;;;;;;;;;;;;;;;;;;;;;;;;;;;;;;;;;;;;;;;;;;;;;;;;;;;;;;;;
																											;PROCEDURI

				; functia de desenare - se apeleaza la fiecare click
				; sau la fiecare interval de 200ms in care nu s-a dat click
				; arg1 - evt (0 - initializare, 1 - click, 2 - s-a scurs intervalul fara click)
				; arg2 - x
				; arg3 - y

 00000092			draw proc
 00000092  55				push ebp
 00000093  8B EC			mov ebp, esp
 00000095  60				pusha
					
 00000096  8B 45 08			mov eax, [ebp+arg1]
 00000099  83 F8 01			cmp eax, 1
 0000009C  0F 84 00000977		jz evt_click ;s-a apasat pe ecran
 000000A2  83 F8 02			cmp eax, 2
 000000A5  0F 84 00001247		jz evt_timer ;nu s-a efectuat click pe nimic
					
					;intializeaza zona de joc
 000000AB  B8 000003B6			mov eax, area_width
 000000B0  BB 000003B6			mov ebx, area_height
 000000B5  F7 E3			mul ebx
 000000B7  C1 E0 02			shl eax, 2
 000000BA  50				push eax
 000000BB  68 00A7A6A5			push 0A7A6A5h ;coloram toata harta gri
 000000C0  FF 35 0000000A R		push area
 000000C6  E8 00000000 E		call memset
 000000CB  83 C4 0C			add esp, 12
					
 000000CE  BE 00000032			mov ESI, 50
					
					;trasam linii albe pe verticala si orizontala 
 000000D3				horizontal_white:
					line_horizontal 0, ESI, area_width*50, 0FFFFFFh	
 000000D3  8B C6	     1		mov eax, ESI; EAX = y
 000000D5  BB 000003B6	     1		mov ebx, area_width
 000000DA  F7 E3	     1		mul ebx; EAX = y*area_width
 000000DC  83 C0 00	     1		add EAX, 0; EAX = y*area_width+x
 000000DF  C1 E0 02	     1		shl eax, 2; EAX = (y*area_width+x)*4
 000000E2  03 05 0000000A R  1		add EAX, area
 000000E8  B9 0000B98C	     1		mov ECX, area_width*50
 000000ED		     1	??0000:
 000000ED  C7 00 00FFFFFF    1		mov dword ptr [eax], 0FFFFFFh
 000000F3  83 C0 04	     1		add EAX,4
 000000F6  E2 F5	     1	loop ??0000
 000000F8  83 C6 64			add ESI, 100
 000000FB  81 FE 00000384		cmp ESI, area_height - 50
 00000101  7C D0			jl horizontal_white
					
 00000103  BF 00000032			mov EDI, 50
					
 00000108				vertical_white2:
 00000108  BE 00000383			mov ESI, area_height-51
 0000010D				vertical_white1:
					line_horizontal EDI, ESI, 50, 0FFFFFFh
 0000010D  8B C6	     1		mov eax, ESI; EAX = y
 0000010F  BB 000003B6	     1		mov ebx, area_width
 00000114  F7 E3	     1		mul ebx; EAX = y*area_width
 00000116  03 C7	     1		add EAX, EDI; EAX = y*area_width+x
 00000118  C1 E0 02	     1		shl eax, 2; EAX = (y*area_width+x)*4
 0000011B  03 05 0000000A R  1		add EAX, area
 00000121  B9 00000032	     1		mov ECX, 50
 00000126		     1	??0001:
 00000126  C7 00 00FFFFFF    1		mov dword ptr [eax], 0FFFFFFh
 0000012C  83 C0 04	     1		add EAX,4
 0000012F  E2 F5	     1	loop ??0001
 00000131  4E				dec ESI
 00000132  83 FE 32			cmp ESI, 50
 00000135  75 D6			jne vertical_white1
 00000137  83 C7 64			add EDI, 100
 0000013A  81 FF 00000384		cmp EDI, area_width-50
 00000140  7C C6			jl vertical_white2
					
 00000142  BE 00000384			mov ESI, area_height-50
					
					;completam marginile
 00000147				left_border:
					line_horizontal 0, ESI, 50, 0A7A6A5h
 00000147  8B C6	     1		mov eax, ESI; EAX = y
 00000149  BB 000003B6	     1		mov ebx, area_width
 0000014E  F7 E3	     1		mul ebx; EAX = y*area_width
 00000150  83 C0 00	     1		add EAX, 0; EAX = y*area_width+x
 00000153  C1 E0 02	     1		shl eax, 2; EAX = (y*area_width+x)*4
 00000156  03 05 0000000A R  1		add EAX, area
 0000015C  B9 00000032	     1		mov ECX, 50
 00000161		     1	??0002:
 00000161  C7 00 00A7A6A5    1		mov dword ptr [eax], 0A7A6A5h
 00000167  83 C0 04	     1		add EAX,4
 0000016A  E2 F5	     1	loop ??0002
 0000016C  4E				dec ESI
 0000016D  83 FE 00			cmp ESI, 0
 00000170  75 D5			jne left_border
					
 00000172  BE 00000384			mov ESI, area_height-50
					
 00000177				right_border:
					line_horizontal area_height-50, ESI, 50, 0A7A6A5h	
 00000177  8B C6	     1		mov eax, ESI; EAX = y
 00000179  BB 000003B6	     1		mov ebx, area_width
 0000017E  F7 E3	     1		mul ebx; EAX = y*area_width
 00000180  05 00000384	     1		add EAX, area_height-50; EAX = y*area_width+x
 00000185  C1 E0 02	     1		shl eax, 2; EAX = (y*area_width+x)*4
 00000188  03 05 0000000A R  1		add EAX, area
 0000018E  B9 00000032	     1		mov ECX, 50
 00000193		     1	??0003:
 00000193  C7 00 00A7A6A5    1		mov dword ptr [eax], 0A7A6A5h
 00000199  83 C0 04	     1		add EAX,4
 0000019C  E2 F5	     1	loop ??0003
 0000019E  4E				dec ESI
 0000019F  83 FE 00			cmp ESI, 0
 000001A2  75 D3			jne right_border
					
					;plasam jucatorul si inamicul
					draw_square 50, 50, 0FF0000h
 000001A4  BF 00000032	     1		mov EDI, 50
 000001A9  BE 00000000	     1		mov ESI, 0
 000001AE		     1		??0004:
 000001AE  8B C7	     2		mov eax, EDI; EAX = y
 000001B0  BB 000003B6	     2		mov ebx, area_width
 000001B5  F7 E3	     2		mul ebx; EAX = y*area_width
 000001B7  83 C0 32	     2		add EAX, 50; EAX = y*area_width+x
 000001BA  C1 E0 02	     2		shl eax, 2; EAX = (y*area_width+x)*4
 000001BD  03 05 0000000A R  2		add EAX, area
 000001C3  B9 00000032	     2		mov ECX, 50
 000001C8		     2	??0005:
 000001C8  C7 00 00FF0000    2		mov dword ptr [eax], 0FF0000h
 000001CE  83 C0 04	     2		add EAX,4
 000001D1  E2 F5	     2	loop ??0005
 000001D3  46		     1		inc ESI
 000001D4  47		     1		inc EDI
 000001D5  83 FE 32	     1		cmp ESI, 50
 000001D8  75 D4	     1		jne ??0004
					draw_square area_width-100, area_height-200, 0FF69B4h
 000001DA  BF 000002EE	     1		mov EDI, area_height-200
 000001DF  BE 00000000	     1		mov ESI, 0
 000001E4		     1		??0006:
 000001E4  8B C7	     2		mov eax, EDI; EAX = y
 000001E6  BB 000003B6	     2		mov ebx, area_width
 000001EB  F7 E3	     2		mul ebx; EAX = y*area_width
 000001ED  05 00000352	     2		add EAX, area_width-100; EAX = y*area_width+x
 000001F2  C1 E0 02	     2		shl eax, 2; EAX = (y*area_width+x)*4
 000001F5  03 05 0000000A R  2		add EAX, area
 000001FB  B9 00000032	     2		mov ECX, 50
 00000200		     2	??0007:
 00000200  C7 00 00FF69B4    2		mov dword ptr [eax], 0FF69B4h
 00000206  83 C0 04	     2		add EAX,4
 00000209  E2 F5	     2	loop ??0007
 0000020B  46		     1		inc ESI
 0000020C  47		     1		inc EDI
 0000020D  83 FE 32	     1		cmp ESI, 50
 00000210  75 D2	     1		jne ??0006
					
					;initializam zona butoanelor de directie
					draw_square area_width-100, area_height-100, 0A7A6A5h 
 00000212  BF 00000352	     1		mov EDI, area_height-100
 00000217  BE 00000000	     1		mov ESI, 0
 0000021C		     1		??0008:
 0000021C  8B C7	     2		mov eax, EDI; EAX = y
 0000021E  BB 000003B6	     2		mov ebx, area_width
 00000223  F7 E3	     2		mul ebx; EAX = y*area_width
 00000225  05 00000352	     2		add EAX, area_width-100; EAX = y*area_width+x
 0000022A  C1 E0 02	     2		shl eax, 2; EAX = (y*area_width+x)*4
 0000022D  03 05 0000000A R  2		add EAX, area
 00000233  B9 00000032	     2		mov ECX, 50
 00000238		     2	??0009:
 00000238  C7 00 00A7A6A5    2		mov dword ptr [eax], 0A7A6A5h
 0000023E  83 C0 04	     2		add EAX,4
 00000241  E2 F5	     2	loop ??0009
 00000243  46		     1		inc ESI
 00000244  47		     1		inc EDI
 00000245  83 FE 32	     1		cmp ESI, 50
 00000248  75 D2	     1		jne ??0008
					draw_square area_width-100, area_height-150, 0A7A6A5h
 0000024A  BF 00000320	     1		mov EDI, area_height-150
 0000024F  BE 00000000	     1		mov ESI, 0
 00000254		     1		??000A:
 00000254  8B C7	     2		mov eax, EDI; EAX = y
 00000256  BB 000003B6	     2		mov ebx, area_width
 0000025B  F7 E3	     2		mul ebx; EAX = y*area_width
 0000025D  05 00000352	     2		add EAX, area_width-100; EAX = y*area_width+x
 00000262  C1 E0 02	     2		shl eax, 2; EAX = (y*area_width+x)*4
 00000265  03 05 0000000A R  2		add EAX, area
 0000026B  B9 00000032	     2		mov ECX, 50
 00000270		     2	??000B:
 00000270  C7 00 00A7A6A5    2		mov dword ptr [eax], 0A7A6A5h
 00000276  83 C0 04	     2		add EAX,4
 00000279  E2 F5	     2	loop ??000B
 0000027B  46		     1		inc ESI
 0000027C  47		     1		inc EDI
 0000027D  83 FE 32	     1		cmp ESI, 50
 00000280  75 D2	     1		jne ??000A
					draw_square area_width-150, area_height-100, 0A7A6A5h
 00000282  BF 00000352	     1		mov EDI, area_height-100
 00000287  BE 00000000	     1		mov ESI, 0
 0000028C		     1		??000C:
 0000028C  8B C7	     2		mov eax, EDI; EAX = y
 0000028E  BB 000003B6	     2		mov ebx, area_width
 00000293  F7 E3	     2		mul ebx; EAX = y*area_width
 00000295  05 00000320	     2		add EAX, area_width-150; EAX = y*area_width+x
 0000029A  C1 E0 02	     2		shl eax, 2; EAX = (y*area_width+x)*4
 0000029D  03 05 0000000A R  2		add EAX, area
 000002A3  B9 00000032	     2		mov ECX, 50
 000002A8		     2	??000D:
 000002A8  C7 00 00A7A6A5    2		mov dword ptr [eax], 0A7A6A5h
 000002AE  83 C0 04	     2		add EAX,4
 000002B1  E2 F5	     2	loop ??000D
 000002B3  46		     1		inc ESI
 000002B4  47		     1		inc EDI
 000002B5  83 FE 32	     1		cmp ESI, 50
 000002B8  75 D2	     1		jne ??000C
					
					draw_arrow 1, area_width-100, area_height-110, 0h
 000002BA  C7 05 00001D3B R  1		mov aux1, 1
	   00000001
 000002C4  BE 00000032	     1		mov ESI, 50
 000002C9  BF 00000352	     1		mov EDI, area_width-100
 000002CE  C7 05 00001D37 R  1		mov aux, area_height-110
	   00000348
 000002D8  83 3D 00001D3B R  1		cmp aux1, 1
	   01
 000002DF  74 5B	     1		je ??000E
 000002E1  83 3D 00001D3B R  1		cmp aux1, 2
	   02
 000002E8  0F 84 00000083    1		je ??000F
 000002EE  83 3D 00001D3B R  1		cmp aux1, 3
	   03
 000002F5  74 0D	     1		je ??0010
 000002F7  83 3D 00001D3B R  1		cmp aux1, 4
	   04
 000002FE  0F 84 000000A4    1		je ??0011
 00000304		     1		??0010:
 00000304  A1 00001D37 R     2		mov eax, aux; EAX = y
 00000309  BB 000003B6	     2		mov ebx, area_width
 0000030E  F7 E3	     2		mul ebx; EAX = y*area_width
 00000310  03 C7	     2		add EAX, EDI; EAX = y*area_width+x
 00000312  C1 E0 02	     2		shl eax, 2; EAX = (y*area_width+x)*4
 00000315  03 05 0000000A R  2		add EAX, area
 0000031B  8B CE	     2		mov ECX, ESI
 0000031D		     2	??0013:
 0000031D  C7 00 00000000    2		mov dword ptr [eax], 0h
 00000323  83 C0 04	     2		add EAX,4
 00000326  E2 F5	     2	loop ??0013
 00000328  47		     1		inc EDI
 00000329  83 EE 02	     1		sub ESI, 2
 0000032C  FF 05 00001D37 R  1		inc aux
 00000332  83 FE 00	     1		cmp ESI, 0
 00000335  75 CD	     1		jne ??0010
 00000337  E9 000000A1	     1		jmp ??0012
 0000033C		     1		??000E:
 0000033C  A1 00001D37 R     2		mov eax, aux; EAX = y
 00000341  BB 000003B6	     2		mov ebx, area_width
 00000346  F7 E3	     2		mul ebx; EAX = y*area_width
 00000348  03 C7	     2		add EAX, EDI; EAX = y*area_width+x
 0000034A  C1 E0 02	     2		shl eax, 2; EAX = (y*area_width+x)*4
 0000034D  03 05 0000000A R  2		add EAX, area
 00000353  8B CE	     2		mov ECX, ESI
 00000355		     2	??0014:
 00000355  C7 00 00000000    2		mov dword ptr [eax], 0h
 0000035B  83 C0 04	     2		add EAX,4
 0000035E  E2 F5	     2	loop ??0014
 00000360  47		     1		inc EDI
 00000361  83 EE 02	     1		sub ESI, 2
 00000364  FF 0D 00001D37 R  1		dec aux
 0000036A  83 FE 00	     1		cmp ESI, 0
 0000036D  75 CD	     1		jne ??000E
 0000036F  EB 6C	     1		jmp ??0012
 00000371		     1		??000F:
 00000371  A1 00001D37 R     2		mov eax, aux; EAX = y
 00000376  BB 000003B6	     2		mov ebx, area_width
 0000037B  F7 E3	     2		mul ebx; EAX = y*area_width
 0000037D  03 C7	     2		add EAX, EDI; EAX = y*area_width+x
 0000037F  C1 E0 02	     2		shl eax, 2; EAX = (y*area_width+x)*4
 00000382  03 05 0000000A R  2		add EAX, area
 00000388  8B CE	     2		mov ECX, ESI
 0000038A		     2	??0015:
 0000038A  C7 00 00000000    2		mov dword ptr [eax], 0h
 00000390  05 00000ED8	     2		add EAX,area_width*4
 00000395  E2 F3	     2	loop ??0015
 00000397  4F		     1		dec EDI
 00000398  83 EE 02	     1		sub ESI, 2
 0000039B  FF 05 00001D37 R  1		inc aux
 000003A1  83 FE 00	     1		cmp ESI, 0
 000003A4  75 CB	     1		jne ??000F
 000003A6  EB 35	     1		jmp ??0012
 000003A8		     1		??0011:
 000003A8  A1 00001D37 R     2		mov eax, aux; EAX = y
 000003AD  BB 000003B6	     2		mov ebx, area_width
 000003B2  F7 E3	     2		mul ebx; EAX = y*area_width
 000003B4  03 C7	     2		add EAX, EDI; EAX = y*area_width+x
 000003B6  C1 E0 02	     2		shl eax, 2; EAX = (y*area_width+x)*4
 000003B9  03 05 0000000A R  2		add EAX, area
 000003BF  8B CE	     2		mov ECX, ESI
 000003C1		     2	??0016:
 000003C1  C7 00 00000000    2		mov dword ptr [eax], 0h
 000003C7  05 00000ED8	     2		add EAX,area_width*4
 000003CC  E2 F3	     2	loop ??0016
 000003CE  47		     1		inc EDI
 000003CF  83 EE 02	     1		sub ESI, 2
 000003D2  FF 05 00001D37 R  1		inc aux
 000003D8  83 FE 00	     1		cmp ESI, 0
 000003DB  75 CB	     1		jne ??0011
 000003DD		     1		??0012:
					draw_arrow 3, area_width-100, area_height-40, 0h
 000003DD  C7 05 00001D3B R  1		mov aux1, 3
	   00000003
 000003E7  BE 00000032	     1		mov ESI, 50
 000003EC  BF 00000352	     1		mov EDI, area_width-100
 000003F1  C7 05 00001D37 R  1		mov aux, area_height-40
	   0000038E
 000003FB  83 3D 00001D3B R  1		cmp aux1, 1
	   01
 00000402  74 5B	     1		je ??0017
 00000404  83 3D 00001D3B R  1		cmp aux1, 2
	   02
 0000040B  0F 84 00000083    1		je ??0018
 00000411  83 3D 00001D3B R  1		cmp aux1, 3
	   03
 00000418  74 0D	     1		je ??0019
 0000041A  83 3D 00001D3B R  1		cmp aux1, 4
	   04
 00000421  0F 84 000000A4    1		je ??001A
 00000427		     1		??0019:
 00000427  A1 00001D37 R     2		mov eax, aux; EAX = y
 0000042C  BB 000003B6	     2		mov ebx, area_width
 00000431  F7 E3	     2		mul ebx; EAX = y*area_width
 00000433  03 C7	     2		add EAX, EDI; EAX = y*area_width+x
 00000435  C1 E0 02	     2		shl eax, 2; EAX = (y*area_width+x)*4
 00000438  03 05 0000000A R  2		add EAX, area
 0000043E  8B CE	     2		mov ECX, ESI
 00000440		     2	??001C:
 00000440  C7 00 00000000    2		mov dword ptr [eax], 0h
 00000446  83 C0 04	     2		add EAX,4
 00000449  E2 F5	     2	loop ??001C
 0000044B  47		     1		inc EDI
 0000044C  83 EE 02	     1		sub ESI, 2
 0000044F  FF 05 00001D37 R  1		inc aux
 00000455  83 FE 00	     1		cmp ESI, 0
 00000458  75 CD	     1		jne ??0019
 0000045A  E9 000000A1	     1		jmp ??001B
 0000045F		     1		??0017:
 0000045F  A1 00001D37 R     2		mov eax, aux; EAX = y
 00000464  BB 000003B6	     2		mov ebx, area_width
 00000469  F7 E3	     2		mul ebx; EAX = y*area_width
 0000046B  03 C7	     2		add EAX, EDI; EAX = y*area_width+x
 0000046D  C1 E0 02	     2		shl eax, 2; EAX = (y*area_width+x)*4
 00000470  03 05 0000000A R  2		add EAX, area
 00000476  8B CE	     2		mov ECX, ESI
 00000478		     2	??001D:
 00000478  C7 00 00000000    2		mov dword ptr [eax], 0h
 0000047E  83 C0 04	     2		add EAX,4
 00000481  E2 F5	     2	loop ??001D
 00000483  47		     1		inc EDI
 00000484  83 EE 02	     1		sub ESI, 2
 00000487  FF 0D 00001D37 R  1		dec aux
 0000048D  83 FE 00	     1		cmp ESI, 0
 00000490  75 CD	     1		jne ??0017
 00000492  EB 6C	     1		jmp ??001B
 00000494		     1		??0018:
 00000494  A1 00001D37 R     2		mov eax, aux; EAX = y
 00000499  BB 000003B6	     2		mov ebx, area_width
 0000049E  F7 E3	     2		mul ebx; EAX = y*area_width
 000004A0  03 C7	     2		add EAX, EDI; EAX = y*area_width+x
 000004A2  C1 E0 02	     2		shl eax, 2; EAX = (y*area_width+x)*4
 000004A5  03 05 0000000A R  2		add EAX, area
 000004AB  8B CE	     2		mov ECX, ESI
 000004AD		     2	??001E:
 000004AD  C7 00 00000000    2		mov dword ptr [eax], 0h
 000004B3  05 00000ED8	     2		add EAX,area_width*4
 000004B8  E2 F3	     2	loop ??001E
 000004BA  4F		     1		dec EDI
 000004BB  83 EE 02	     1		sub ESI, 2
 000004BE  FF 05 00001D37 R  1		inc aux
 000004C4  83 FE 00	     1		cmp ESI, 0
 000004C7  75 CB	     1		jne ??0018
 000004C9  EB 35	     1		jmp ??001B
 000004CB		     1		??001A:
 000004CB  A1 00001D37 R     2		mov eax, aux; EAX = y
 000004D0  BB 000003B6	     2		mov ebx, area_width
 000004D5  F7 E3	     2		mul ebx; EAX = y*area_width
 000004D7  03 C7	     2		add EAX, EDI; EAX = y*area_width+x
 000004D9  C1 E0 02	     2		shl eax, 2; EAX = (y*area_width+x)*4
 000004DC  03 05 0000000A R  2		add EAX, area
 000004E2  8B CE	     2		mov ECX, ESI
 000004E4		     2	??001F:
 000004E4  C7 00 00000000    2		mov dword ptr [eax], 0h
 000004EA  05 00000ED8	     2		add EAX,area_width*4
 000004EF  E2 F3	     2	loop ??001F
 000004F1  47		     1		inc EDI
 000004F2  83 EE 02	     1		sub ESI, 2
 000004F5  FF 05 00001D37 R  1		inc aux
 000004FB  83 FE 00	     1		cmp ESI, 0
 000004FE  75 CB	     1		jne ??001A
 00000500		     1		??001B:
					draw_arrow 2, area_width-110, area_height-100, 0h
 00000500  C7 05 00001D3B R  1		mov aux1, 2
	   00000002
 0000050A  BE 00000032	     1		mov ESI, 50
 0000050F  BF 00000348	     1		mov EDI, area_width-110
 00000514  C7 05 00001D37 R  1		mov aux, area_height-100
	   00000352
 0000051E  83 3D 00001D3B R  1		cmp aux1, 1
	   01
 00000525  74 5B	     1		je ??0020
 00000527  83 3D 00001D3B R  1		cmp aux1, 2
	   02
 0000052E  0F 84 00000083    1		je ??0021
 00000534  83 3D 00001D3B R  1		cmp aux1, 3
	   03
 0000053B  74 0D	     1		je ??0022
 0000053D  83 3D 00001D3B R  1		cmp aux1, 4
	   04
 00000544  0F 84 000000A4    1		je ??0023
 0000054A		     1		??0022:
 0000054A  A1 00001D37 R     2		mov eax, aux; EAX = y
 0000054F  BB 000003B6	     2		mov ebx, area_width
 00000554  F7 E3	     2		mul ebx; EAX = y*area_width
 00000556  03 C7	     2		add EAX, EDI; EAX = y*area_width+x
 00000558  C1 E0 02	     2		shl eax, 2; EAX = (y*area_width+x)*4
 0000055B  03 05 0000000A R  2		add EAX, area
 00000561  8B CE	     2		mov ECX, ESI
 00000563		     2	??0025:
 00000563  C7 00 00000000    2		mov dword ptr [eax], 0h
 00000569  83 C0 04	     2		add EAX,4
 0000056C  E2 F5	     2	loop ??0025
 0000056E  47		     1		inc EDI
 0000056F  83 EE 02	     1		sub ESI, 2
 00000572  FF 05 00001D37 R  1		inc aux
 00000578  83 FE 00	     1		cmp ESI, 0
 0000057B  75 CD	     1		jne ??0022
 0000057D  E9 000000A1	     1		jmp ??0024
 00000582		     1		??0020:
 00000582  A1 00001D37 R     2		mov eax, aux; EAX = y
 00000587  BB 000003B6	     2		mov ebx, area_width
 0000058C  F7 E3	     2		mul ebx; EAX = y*area_width
 0000058E  03 C7	     2		add EAX, EDI; EAX = y*area_width+x
 00000590  C1 E0 02	     2		shl eax, 2; EAX = (y*area_width+x)*4
 00000593  03 05 0000000A R  2		add EAX, area
 00000599  8B CE	     2		mov ECX, ESI
 0000059B		     2	??0026:
 0000059B  C7 00 00000000    2		mov dword ptr [eax], 0h
 000005A1  83 C0 04	     2		add EAX,4
 000005A4  E2 F5	     2	loop ??0026
 000005A6  47		     1		inc EDI
 000005A7  83 EE 02	     1		sub ESI, 2
 000005AA  FF 0D 00001D37 R  1		dec aux
 000005B0  83 FE 00	     1		cmp ESI, 0
 000005B3  75 CD	     1		jne ??0020
 000005B5  EB 6C	     1		jmp ??0024
 000005B7		     1		??0021:
 000005B7  A1 00001D37 R     2		mov eax, aux; EAX = y
 000005BC  BB 000003B6	     2		mov ebx, area_width
 000005C1  F7 E3	     2		mul ebx; EAX = y*area_width
 000005C3  03 C7	     2		add EAX, EDI; EAX = y*area_width+x
 000005C5  C1 E0 02	     2		shl eax, 2; EAX = (y*area_width+x)*4
 000005C8  03 05 0000000A R  2		add EAX, area
 000005CE  8B CE	     2		mov ECX, ESI
 000005D0		     2	??0027:
 000005D0  C7 00 00000000    2		mov dword ptr [eax], 0h
 000005D6  05 00000ED8	     2		add EAX,area_width*4
 000005DB  E2 F3	     2	loop ??0027
 000005DD  4F		     1		dec EDI
 000005DE  83 EE 02	     1		sub ESI, 2
 000005E1  FF 05 00001D37 R  1		inc aux
 000005E7  83 FE 00	     1		cmp ESI, 0
 000005EA  75 CB	     1		jne ??0021
 000005EC  EB 35	     1		jmp ??0024
 000005EE		     1		??0023:
 000005EE  A1 00001D37 R     2		mov eax, aux; EAX = y
 000005F3  BB 000003B6	     2		mov ebx, area_width
 000005F8  F7 E3	     2		mul ebx; EAX = y*area_width
 000005FA  03 C7	     2		add EAX, EDI; EAX = y*area_width+x
 000005FC  C1 E0 02	     2		shl eax, 2; EAX = (y*area_width+x)*4
 000005FF  03 05 0000000A R  2		add EAX, area
 00000605  8B CE	     2		mov ECX, ESI
 00000607		     2	??0028:
 00000607  C7 00 00000000    2		mov dword ptr [eax], 0h
 0000060D  05 00000ED8	     2		add EAX,area_width*4
 00000612  E2 F3	     2	loop ??0028
 00000614  47		     1		inc EDI
 00000615  83 EE 02	     1		sub ESI, 2
 00000618  FF 05 00001D37 R  1		inc aux
 0000061E  83 FE 00	     1		cmp ESI, 0
 00000621  75 CB	     1		jne ??0023
 00000623		     1		??0024:
					draw_arrow 4, area_width-40, area_height-100, 0h
 00000623  C7 05 00001D3B R  1		mov aux1, 4
	   00000004
 0000062D  BE 00000032	     1		mov ESI, 50
 00000632  BF 0000038E	     1		mov EDI, area_width-40
 00000637  C7 05 00001D37 R  1		mov aux, area_height-100
	   00000352
 00000641  83 3D 00001D3B R  1		cmp aux1, 1
	   01
 00000648  74 5B	     1		je ??0029
 0000064A  83 3D 00001D3B R  1		cmp aux1, 2
	   02
 00000651  0F 84 00000083    1		je ??002A
 00000657  83 3D 00001D3B R  1		cmp aux1, 3
	   03
 0000065E  74 0D	     1		je ??002B
 00000660  83 3D 00001D3B R  1		cmp aux1, 4
	   04
 00000667  0F 84 000000A4    1		je ??002C
 0000066D		     1		??002B:
 0000066D  A1 00001D37 R     2		mov eax, aux; EAX = y
 00000672  BB 000003B6	     2		mov ebx, area_width
 00000677  F7 E3	     2		mul ebx; EAX = y*area_width
 00000679  03 C7	     2		add EAX, EDI; EAX = y*area_width+x
 0000067B  C1 E0 02	     2		shl eax, 2; EAX = (y*area_width+x)*4
 0000067E  03 05 0000000A R  2		add EAX, area
 00000684  8B CE	     2		mov ECX, ESI
 00000686		     2	??002E:
 00000686  C7 00 00000000    2		mov dword ptr [eax], 0h
 0000068C  83 C0 04	     2		add EAX,4
 0000068F  E2 F5	     2	loop ??002E
 00000691  47		     1		inc EDI
 00000692  83 EE 02	     1		sub ESI, 2
 00000695  FF 05 00001D37 R  1		inc aux
 0000069B  83 FE 00	     1		cmp ESI, 0
 0000069E  75 CD	     1		jne ??002B
 000006A0  E9 000000A1	     1		jmp ??002D
 000006A5		     1		??0029:
 000006A5  A1 00001D37 R     2		mov eax, aux; EAX = y
 000006AA  BB 000003B6	     2		mov ebx, area_width
 000006AF  F7 E3	     2		mul ebx; EAX = y*area_width
 000006B1  03 C7	     2		add EAX, EDI; EAX = y*area_width+x
 000006B3  C1 E0 02	     2		shl eax, 2; EAX = (y*area_width+x)*4
 000006B6  03 05 0000000A R  2		add EAX, area
 000006BC  8B CE	     2		mov ECX, ESI
 000006BE		     2	??002F:
 000006BE  C7 00 00000000    2		mov dword ptr [eax], 0h
 000006C4  83 C0 04	     2		add EAX,4
 000006C7  E2 F5	     2	loop ??002F
 000006C9  47		     1		inc EDI
 000006CA  83 EE 02	     1		sub ESI, 2
 000006CD  FF 0D 00001D37 R  1		dec aux
 000006D3  83 FE 00	     1		cmp ESI, 0
 000006D6  75 CD	     1		jne ??0029
 000006D8  EB 6C	     1		jmp ??002D
 000006DA		     1		??002A:
 000006DA  A1 00001D37 R     2		mov eax, aux; EAX = y
 000006DF  BB 000003B6	     2		mov ebx, area_width
 000006E4  F7 E3	     2		mul ebx; EAX = y*area_width
 000006E6  03 C7	     2		add EAX, EDI; EAX = y*area_width+x
 000006E8  C1 E0 02	     2		shl eax, 2; EAX = (y*area_width+x)*4
 000006EB  03 05 0000000A R  2		add EAX, area
 000006F1  8B CE	     2		mov ECX, ESI
 000006F3		     2	??0030:
 000006F3  C7 00 00000000    2		mov dword ptr [eax], 0h
 000006F9  05 00000ED8	     2		add EAX,area_width*4
 000006FE  E2 F3	     2	loop ??0030
 00000700  4F		     1		dec EDI
 00000701  83 EE 02	     1		sub ESI, 2
 00000704  FF 05 00001D37 R  1		inc aux
 0000070A  83 FE 00	     1		cmp ESI, 0
 0000070D  75 CB	     1		jne ??002A
 0000070F  EB 35	     1		jmp ??002D
 00000711		     1		??002C:
 00000711  A1 00001D37 R     2		mov eax, aux; EAX = y
 00000716  BB 000003B6	     2		mov ebx, area_width
 0000071B  F7 E3	     2		mul ebx; EAX = y*area_width
 0000071D  03 C7	     2		add EAX, EDI; EAX = y*area_width+x
 0000071F  C1 E0 02	     2		shl eax, 2; EAX = (y*area_width+x)*4
 00000722  03 05 0000000A R  2		add EAX, area
 00000728  8B CE	     2		mov ECX, ESI
 0000072A		     2	??0031:
 0000072A  C7 00 00000000    2		mov dword ptr [eax], 0h
 00000730  05 00000ED8	     2		add EAX,area_width*4
 00000735  E2 F3	     2	loop ??0031
 00000737  47		     1		inc EDI
 00000738  83 EE 02	     1		sub ESI, 2
 0000073B  FF 05 00001D37 R  1		inc aux
 00000741  83 FE 00	     1		cmp ESI, 0
 00000744  75 CB	     1		jne ??002C
 00000746		     1		??002D:
					
					make_text_macro 'B', area, area_width-96, area_height-86
 00000746  68 00000360	     1		push area_height-86
 0000074B  68 00000356	     1		push area_width-96
 00000750  FF 35 0000000A R  1		push area
 00000756  6A 42	     1		push 'B'
 00000758  E8 FFFFF8A3	     1		call make_text
 0000075D  83 C4 10	     1		add esp, 16
					make_text_macro 'O', area, area_width-86, area_height-86
 00000760  68 00000360	     1		push area_height-86
 00000765  68 00000360	     1		push area_width-86
 0000076A  FF 35 0000000A R  1		push area
 00000770  6A 4F	     1		push 'O'
 00000772  E8 FFFFF889	     1		call make_text
 00000777  83 C4 10	     1		add esp, 16
					make_text_macro 'M', area, area_width-76, area_height-86
 0000077A  68 00000360	     1		push area_height-86
 0000077F  68 0000036A	     1		push area_width-76
 00000784  FF 35 0000000A R  1		push area
 0000078A  6A 4D	     1		push 'M'
 0000078C  E8 FFFFF86F	     1		call make_text
 00000791  83 C4 10	     1		add esp, 16
					make_text_macro 'B', area, area_width-66, area_height-86
 00000794  68 00000360	     1		push area_height-86
 00000799  68 00000374	     1		push area_width-66
 0000079E  FF 35 0000000A R  1		push area
 000007A4  6A 42	     1		push 'B'
 000007A6  E8 FFFFF855	     1		call make_text
 000007AB  83 C4 10	     1		add esp, 16
					
					;punem cateva cutii
					draw_square 150, 500, 0A0522Dh
 000007AE  BF 000001F4	     1		mov EDI, 500
 000007B3  BE 00000000	     1		mov ESI, 0
 000007B8		     1		??0032:
 000007B8  8B C7	     2		mov eax, EDI; EAX = y
 000007BA  BB 000003B6	     2		mov ebx, area_width
 000007BF  F7 E3	     2		mul ebx; EAX = y*area_width
 000007C1  05 00000096	     2		add EAX, 150; EAX = y*area_width+x
 000007C6  C1 E0 02	     2		shl eax, 2; EAX = (y*area_width+x)*4
 000007C9  03 05 0000000A R  2		add EAX, area
 000007CF  B9 00000032	     2		mov ECX, 50
 000007D4		     2	??0033:
 000007D4  C7 00 00A0522D    2		mov dword ptr [eax], 0A0522Dh
 000007DA  83 C0 04	     2		add EAX,4
 000007DD  E2 F5	     2	loop ??0033
 000007DF  46		     1		inc ESI
 000007E0  47		     1		inc EDI
 000007E1  83 FE 32	     1		cmp ESI, 50
 000007E4  75 D2	     1		jne ??0032
					draw_square 250, 200, 0A0522Dh
 000007E6  BF 000000C8	     1		mov EDI, 200
 000007EB  BE 00000000	     1		mov ESI, 0
 000007F0		     1		??0034:
 000007F0  8B C7	     2		mov eax, EDI; EAX = y
 000007F2  BB 000003B6	     2		mov ebx, area_width
 000007F7  F7 E3	     2		mul ebx; EAX = y*area_width
 000007F9  05 000000FA	     2		add EAX, 250; EAX = y*area_width+x
 000007FE  C1 E0 02	     2		shl eax, 2; EAX = (y*area_width+x)*4
 00000801  03 05 0000000A R  2		add EAX, area
 00000807  B9 00000032	     2		mov ECX, 50
 0000080C		     2	??0035:
 0000080C  C7 00 00A0522D    2		mov dword ptr [eax], 0A0522Dh
 00000812  83 C0 04	     2		add EAX,4
 00000815  E2 F5	     2	loop ??0035
 00000817  46		     1		inc ESI
 00000818  47		     1		inc EDI
 00000819  83 FE 32	     1		cmp ESI, 50
 0000081C  75 D2	     1		jne ??0034
					draw_square 200, 250, 0A0522Dh
 0000081E  BF 000000FA	     1		mov EDI, 250
 00000823  BE 00000000	     1		mov ESI, 0
 00000828		     1		??0036:
 00000828  8B C7	     2		mov eax, EDI; EAX = y
 0000082A  BB 000003B6	     2		mov ebx, area_width
 0000082F  F7 E3	     2		mul ebx; EAX = y*area_width
 00000831  05 000000C8	     2		add EAX, 200; EAX = y*area_width+x
 00000836  C1 E0 02	     2		shl eax, 2; EAX = (y*area_width+x)*4
 00000839  03 05 0000000A R  2		add EAX, area
 0000083F  B9 00000032	     2		mov ECX, 50
 00000844		     2	??0037:
 00000844  C7 00 00A0522D    2		mov dword ptr [eax], 0A0522Dh
 0000084A  83 C0 04	     2		add EAX,4
 0000084D  E2 F5	     2	loop ??0037
 0000084F  46		     1		inc ESI
 00000850  47		     1		inc EDI
 00000851  83 FE 32	     1		cmp ESI, 50
 00000854  75 D2	     1		jne ??0036
					draw_square 500, 350, 0A0522Dh
 00000856  BF 0000015E	     1		mov EDI, 350
 0000085B  BE 00000000	     1		mov ESI, 0
 00000860		     1		??0038:
 00000860  8B C7	     2		mov eax, EDI; EAX = y
 00000862  BB 000003B6	     2		mov ebx, area_width
 00000867  F7 E3	     2		mul ebx; EAX = y*area_width
 00000869  05 000001F4	     2		add EAX, 500; EAX = y*area_width+x
 0000086E  C1 E0 02	     2		shl eax, 2; EAX = (y*area_width+x)*4
 00000871  03 05 0000000A R  2		add EAX, area
 00000877  B9 00000032	     2		mov ECX, 50
 0000087C		     2	??0039:
 0000087C  C7 00 00A0522D    2		mov dword ptr [eax], 0A0522Dh
 00000882  83 C0 04	     2		add EAX,4
 00000885  E2 F5	     2	loop ??0039
 00000887  46		     1		inc ESI
 00000888  47		     1		inc EDI
 00000889  83 FE 32	     1		cmp ESI, 50
 0000088C  75 D2	     1		jne ??0038
					draw_square 350, 50, 0A0522Dh
 0000088E  BF 00000032	     1		mov EDI, 50
 00000893  BE 00000000	     1		mov ESI, 0
 00000898		     1		??003A:
 00000898  8B C7	     2		mov eax, EDI; EAX = y
 0000089A  BB 000003B6	     2		mov ebx, area_width
 0000089F  F7 E3	     2		mul ebx; EAX = y*area_width
 000008A1  05 0000015E	     2		add EAX, 350; EAX = y*area_width+x
 000008A6  C1 E0 02	     2		shl eax, 2; EAX = (y*area_width+x)*4
 000008A9  03 05 0000000A R  2		add EAX, area
 000008AF  B9 00000032	     2		mov ECX, 50
 000008B4		     2	??003B:
 000008B4  C7 00 00A0522D    2		mov dword ptr [eax], 0A0522Dh
 000008BA  83 C0 04	     2		add EAX,4
 000008BD  E2 F5	     2	loop ??003B
 000008BF  46		     1		inc ESI
 000008C0  47		     1		inc EDI
 000008C1  83 FE 32	     1		cmp ESI, 50
 000008C4  75 D2	     1		jne ??003A
					draw_square 400, 650, 0A0522Dh
 000008C6  BF 0000028A	     1		mov EDI, 650
 000008CB  BE 00000000	     1		mov ESI, 0
 000008D0		     1		??003C:
 000008D0  8B C7	     2		mov eax, EDI; EAX = y
 000008D2  BB 000003B6	     2		mov ebx, area_width
 000008D7  F7 E3	     2		mul ebx; EAX = y*area_width
 000008D9  05 00000190	     2		add EAX, 400; EAX = y*area_width+x
 000008DE  C1 E0 02	     2		shl eax, 2; EAX = (y*area_width+x)*4
 000008E1  03 05 0000000A R  2		add EAX, area
 000008E7  B9 00000032	     2		mov ECX, 50
 000008EC		     2	??003D:
 000008EC  C7 00 00A0522D    2		mov dword ptr [eax], 0A0522Dh
 000008F2  83 C0 04	     2		add EAX,4
 000008F5  E2 F5	     2	loop ??003D
 000008F7  46		     1		inc ESI
 000008F8  47		     1		inc EDI
 000008F9  83 FE 32	     1		cmp ESI, 50
 000008FC  75 D2	     1		jne ??003C
					draw_square 700, 650, 0A0522Dh
 000008FE  BF 0000028A	     1		mov EDI, 650
 00000903  BE 00000000	     1		mov ESI, 0
 00000908		     1		??003E:
 00000908  8B C7	     2		mov eax, EDI; EAX = y
 0000090A  BB 000003B6	     2		mov ebx, area_width
 0000090F  F7 E3	     2		mul ebx; EAX = y*area_width
 00000911  05 000002BC	     2		add EAX, 700; EAX = y*area_width+x
 00000916  C1 E0 02	     2		shl eax, 2; EAX = (y*area_width+x)*4
 00000919  03 05 0000000A R  2		add EAX, area
 0000091F  B9 00000032	     2		mov ECX, 50
 00000924		     2	??003F:
 00000924  C7 00 00A0522D    2		mov dword ptr [eax], 0A0522Dh
 0000092A  83 C0 04	     2		add EAX,4
 0000092D  E2 F5	     2	loop ??003F
 0000092F  46		     1		inc ESI
 00000930  47		     1		inc EDI
 00000931  83 FE 32	     1		cmp ESI, 50
 00000934  75 D2	     1		jne ??003E
					draw_square 500, 650, 0A0522Dh
 00000936  BF 0000028A	     1		mov EDI, 650
 0000093B  BE 00000000	     1		mov ESI, 0
 00000940		     1		??0040:
 00000940  8B C7	     2		mov eax, EDI; EAX = y
 00000942  BB 000003B6	     2		mov ebx, area_width
 00000947  F7 E3	     2		mul ebx; EAX = y*area_width
 00000949  05 000001F4	     2		add EAX, 500; EAX = y*area_width+x
 0000094E  C1 E0 02	     2		shl eax, 2; EAX = (y*area_width+x)*4
 00000951  03 05 0000000A R  2		add EAX, area
 00000957  B9 00000032	     2		mov ECX, 50
 0000095C		     2	??0041:
 0000095C  C7 00 00A0522D    2		mov dword ptr [eax], 0A0522Dh
 00000962  83 C0 04	     2		add EAX,4
 00000965  E2 F5	     2	loop ??0041
 00000967  46		     1		inc ESI
 00000968  47		     1		inc EDI
 00000969  83 FE 32	     1		cmp ESI, 50
 0000096C  75 D2	     1		jne ??0040
					draw_square 500, 850, 0A0522Dh
 0000096E  BF 00000352	     1		mov EDI, 850
 00000973  BE 00000000	     1		mov ESI, 0
 00000978		     1		??0042:
 00000978  8B C7	     2		mov eax, EDI; EAX = y
 0000097A  BB 000003B6	     2		mov ebx, area_width
 0000097F  F7 E3	     2		mul ebx; EAX = y*area_width
 00000981  05 000001F4	     2		add EAX, 500; EAX = y*area_width+x
 00000986  C1 E0 02	     2		shl eax, 2; EAX = (y*area_width+x)*4
 00000989  03 05 0000000A R  2		add EAX, area
 0000098F  B9 00000032	     2		mov ECX, 50
 00000994		     2	??0043:
 00000994  C7 00 00A0522D    2		mov dword ptr [eax], 0A0522Dh
 0000099A  83 C0 04	     2		add EAX,4
 0000099D  E2 F5	     2	loop ??0043
 0000099F  46		     1		inc ESI
 000009A0  47		     1		inc EDI
 000009A1  83 FE 32	     1		cmp ESI, 50
 000009A4  75 D2	     1		jne ??0042
					draw_square 700, 250, 0A0522Dh
 000009A6  BF 000000FA	     1		mov EDI, 250
 000009AB  BE 00000000	     1		mov ESI, 0
 000009B0		     1		??0044:
 000009B0  8B C7	     2		mov eax, EDI; EAX = y
 000009B2  BB 000003B6	     2		mov ebx, area_width
 000009B7  F7 E3	     2		mul ebx; EAX = y*area_width
 000009B9  05 000002BC	     2		add EAX, 700; EAX = y*area_width+x
 000009BE  C1 E0 02	     2		shl eax, 2; EAX = (y*area_width+x)*4
 000009C1  03 05 0000000A R  2		add EAX, area
 000009C7  B9 00000032	     2		mov ECX, 50
 000009CC		     2	??0045:
 000009CC  C7 00 00A0522D    2		mov dword ptr [eax], 0A0522Dh
 000009D2  83 C0 04	     2		add EAX,4
 000009D5  E2 F5	     2	loop ??0045
 000009D7  46		     1		inc ESI
 000009D8  47		     1		inc EDI
 000009D9  83 FE 32	     1		cmp ESI, 50
 000009DC  75 D2	     1		jne ??0044
					draw_square 100, 450, 0A0522Dh
 000009DE  BF 000001C2	     1		mov EDI, 450
 000009E3  BE 00000000	     1		mov ESI, 0
 000009E8		     1		??0046:
 000009E8  8B C7	     2		mov eax, EDI; EAX = y
 000009EA  BB 000003B6	     2		mov ebx, area_width
 000009EF  F7 E3	     2		mul ebx; EAX = y*area_width
 000009F1  83 C0 64	     2		add EAX, 100; EAX = y*area_width+x
 000009F4  C1 E0 02	     2		shl eax, 2; EAX = (y*area_width+x)*4
 000009F7  03 05 0000000A R  2		add EAX, area
 000009FD  B9 00000032	     2		mov ECX, 50
 00000A02		     2	??0047:
 00000A02  C7 00 00A0522D    2		mov dword ptr [eax], 0A0522Dh
 00000A08  83 C0 04	     2		add EAX,4
 00000A0B  E2 F5	     2	loop ??0047
 00000A0D  46		     1		inc ESI
 00000A0E  47		     1		inc EDI
 00000A0F  83 FE 32	     1		cmp ESI, 50
 00000A12  75 D4	     1		jne ??0046
					
 00000A14  E9 00002307			jmp final_draw
					
 00000A19			evt_click:
					;verificam apasarea butoanelor
 00000A19  83 3D 00001D33 R		cmp game_over_check,1
	   01
 00000A20  0F 84 000022FA		je final_draw
					press_button[ebp+arg2], [ebp+arg3], button_up_x, button_up_y, 0, -50
 00000A26  8B 45 0C	     1		mov EAX, [ebp+arg2]
 00000A29  3D 00000352	     1		cmp EAX, button_up_x
 00000A2E  0F 8C 00000205    1		jl ??0048
 00000A34  3D 00000384	     1		cmp EAX, button_up_x+50
 00000A39  0F 8F 000001FA    1		jg ??0048
 00000A3F  8B 45 10	     1		mov EAX, [ebp+arg3]
 00000A42  3D 00000320	     1		cmp EAX, button_up_y
 00000A47  0F 8C 000001EC    1		jl ??0048
 00000A4D  3D 00000352	     1		cmp EAX, button_up_y+50
 00000A52  0F 8F 000001E1    1		jg ??0048
 00000A58  A1 00001D0A R     2		mov EAX, bomberman_y; EAX = y
 00000A5D  83 C0 CE	     2		add EAX, -50
 00000A60  BB 000003B6	     2		mov EBX, area_width
 00000A65  F7 E3	     2		mul EBX; EAX = y*area_width 
 00000A67  03 05 00001D06 R  2		add EAX, bomberman_x; EAX = y*area_width+x
 00000A6D  83 C0 00	     2		add EAX, 0
 00000A70  C1 E0 02	     2		shl EAX, 2; EAX = (y*area_width+x)*4
 00000A73  03 05 0000000A R  2		add EAX, area
 00000A79  81 38 00FF69B4    1		cmp dword ptr [EAX], 0FF69B4h
 00000A7F  0F 84 000000DA    1		je ??004A
 00000A85  A1 00001D0A R     2		mov EAX, bomberman_y; EAX = y
 00000A8A  83 C0 CE	     2		add EAX, -50
 00000A8D  BB 000003B6	     2		mov EBX, area_width
 00000A92  F7 E3	     2		mul EBX; EAX = y*area_width 
 00000A94  03 05 00001D06 R  2		add EAX, bomberman_x; EAX = y*area_width+x
 00000A9A  83 C0 00	     2		add EAX, 0
 00000A9D  C1 E0 02	     2		shl EAX, 2; EAX = (y*area_width+x)*4
 00000AA0  03 05 0000000A R  2		add EAX, area
 00000AA6  81 38 00FFFFFF    1		cmp dword ptr [EAX], 0FFFFFFh
 00000AAC  0F 85 00000187    1		jne ??0048
 00000AB2  A1 00001D0A R     2		mov EAX, bomberman_y; EAX = y
 00000AB7  83 C0 CE	     2		add EAX, -50
 00000ABA  BB 000003B6	     2		mov EBX, area_width
 00000ABF  F7 E3	     2		mul EBX; EAX = y*area_width 
 00000AC1  03 05 00001D06 R  2		add EAX, bomberman_x; EAX = y*area_width+x
 00000AC7  83 C0 00	     2		add EAX, 0
 00000ACA  C1 E0 02	     2		shl EAX, 2; EAX = (y*area_width+x)*4
 00000ACD  03 05 0000000A R  2		add EAX, area
 00000AD3  83 38 00	     1		cmp dword ptr [EAX], 0h
 00000AD6  74 3A	     1		je ??0049
 00000AD8  8B 3D 00001D0A R  2		mov EDI, bomberman_y
 00000ADE  BE 00000000	     2		mov ESI, 0
 00000AE3		     2		??004B:
 00000AE3  8B C7	     3		mov eax, EDI; EAX = y
 00000AE5  BB 000003B6	     3		mov ebx, area_width
 00000AEA  F7 E3	     3		mul ebx; EAX = y*area_width
 00000AEC  03 05 00001D06 R  3		add EAX, bomberman_x; EAX = y*area_width+x
 00000AF2  C1 E0 02	     3		shl eax, 2; EAX = (y*area_width+x)*4
 00000AF5  03 05 0000000A R  3		add EAX, area
 00000AFB  B9 00000032	     3		mov ECX, 50
 00000B00		     3	??004C:
 00000B00  C7 00 00FFFFFF    3		mov dword ptr [eax], 0FFFFFFh
 00000B06  83 C0 04	     3		add EAX,4
 00000B09  E2 F5	     3	loop ??004C
 00000B0B  46		     2		inc ESI
 00000B0C  47		     2		inc EDI
 00000B0D  83 FE 32	     2		cmp ESI, 50
 00000B10  75 D1	     2		jne ??004B
 00000B12		     1		??0049:
 00000B12  83 05 00001D0A R  1		add bomberman_y, -50
	   CE
 00000B19  83 05 00001D06 R  1		add bomberman_x, 0
	   00
 00000B20  8B 3D 00001D0A R  2		mov EDI, bomberman_y
 00000B26  BE 00000000	     2		mov ESI, 0
 00000B2B		     2		??004D:
 00000B2B  8B C7	     3		mov eax, EDI; EAX = y
 00000B2D  BB 000003B6	     3		mov ebx, area_width
 00000B32  F7 E3	     3		mul ebx; EAX = y*area_width
 00000B34  03 05 00001D06 R  3		add EAX, bomberman_x; EAX = y*area_width+x
 00000B3A  C1 E0 02	     3		shl eax, 2; EAX = (y*area_width+x)*4
 00000B3D  03 05 0000000A R  3		add EAX, area
 00000B43  B9 00000032	     3		mov ECX, 50
 00000B48		     3	??004E:
 00000B48  C7 00 00FF0000    3		mov dword ptr [eax], 0FF0000h
 00000B4E  83 C0 04	     3		add EAX,4
 00000B51  E2 F5	     3	loop ??004E
 00000B53  46		     2		inc ESI
 00000B54  47		     2		inc EDI
 00000B55  83 FE 32	     2		cmp ESI, 50
 00000B58  75 D1	     2		jne ??004D
 00000B5A  E9 000000DA	     1		jmp ??0048
 00000B5F		     1		??004A:
 00000B5F  C7 05 00001D2B R  2		mov enemy_alive,0
	   00000000
 00000B69  C6 05 00001D0E R  2		mov bomb_check,0 
	   00
 00000B70  B8 000003B6	     2		mov eax, area_width
 00000B75  BB 000003B6	     2		mov ebx, area_height
 00000B7A  F7 E3	     2		mul ebx
 00000B7C  C1 E0 02	     2		shl eax, 2
 00000B7F  50		     2		push eax
 00000B80  68 00A7A6A5	     2		push 0A7A6A5h ;coloram toata harta gri
 00000B85  FF 35 0000000A R  2		push area
 00000B8B  E8 00000000 E     2		call memset
 00000B90  83 C4 0C	     2		add esp, 12
 00000B93  68 000001DB	     3		push area_height/2
 00000B98  68 000001C2	     3		push area_width/2-25
 00000B9D  FF 35 0000000A R  3		push area
 00000BA3  6A 44	     3		push 'D'
 00000BA5  E8 FFFFF456	     3		call make_text
 00000BAA  83 C4 10	     3		add esp, 16
 00000BAD  68 000001DB	     3		push area_height/2
 00000BB2  68 000001CC	     3		push area_width/2-15
 00000BB7  FF 35 0000000A R  3		push area
 00000BBD  6A 45	     3		push 'E'
 00000BBF  E8 FFFFF43C	     3		call make_text
 00000BC4  83 C4 10	     3		add esp, 16
 00000BC7  68 000001DB	     3		push area_height/2
 00000BCC  68 000001D6	     3		push area_width/2-5
 00000BD1  FF 35 0000000A R  3		push area
 00000BD7  6A 46	     3		push 'F'
 00000BD9  E8 FFFFF422	     3		call make_text
 00000BDE  83 C4 10	     3		add esp, 16
 00000BE1  68 000001DB	     3		push area_height/2
 00000BE6  68 000001E0	     3		push area_width/2+5
 00000BEB  FF 35 0000000A R  3		push area
 00000BF1  6A 45	     3		push 'E'
 00000BF3  E8 FFFFF408	     3		call make_text
 00000BF8  83 C4 10	     3		add esp, 16
 00000BFB  68 000001DB	     3		push area_height/2
 00000C00  68 000001EA	     3		push area_width/2+15
 00000C05  FF 35 0000000A R  3		push area
 00000C0B  6A 41	     3		push 'A'
 00000C0D  E8 FFFFF3EE	     3		call make_text
 00000C12  83 C4 10	     3		add esp, 16
 00000C15  68 000001DB	     3		push area_height/2
 00000C1A  68 000001F4	     3		push area_width/2+25
 00000C1F  FF 35 0000000A R  3		push area
 00000C25  6A 54	     3		push 'T'
 00000C27  E8 FFFFF3D4	     3		call make_text
 00000C2C  83 C4 10	     3		add esp, 16
 00000C2F  C7 05 00001D33 R  2		mov game_over_check, 1
	   00000001
 00000C39		     1		??0048:
					press_button [ebp+arg2], [ebp+arg3], button_left_x, button_left_y, -50, 0
 00000C39  8B 45 0C	     1		mov EAX, [ebp+arg2]
 00000C3C  3D 00000320	     1		cmp EAX, button_left_x
 00000C41  0F 8C 00000205    1		jl ??004F
 00000C47  3D 00000352	     1		cmp EAX, button_left_x+50
 00000C4C  0F 8F 000001FA    1		jg ??004F
 00000C52  8B 45 10	     1		mov EAX, [ebp+arg3]
 00000C55  3D 00000352	     1		cmp EAX, button_left_y
 00000C5A  0F 8C 000001EC    1		jl ??004F
 00000C60  3D 00000384	     1		cmp EAX, button_left_y+50
 00000C65  0F 8F 000001E1    1		jg ??004F
 00000C6B  A1 00001D0A R     2		mov EAX, bomberman_y; EAX = y
 00000C70  83 C0 00	     2		add EAX, 0
 00000C73  BB 000003B6	     2		mov EBX, area_width
 00000C78  F7 E3	     2		mul EBX; EAX = y*area_width 
 00000C7A  03 05 00001D06 R  2		add EAX, bomberman_x; EAX = y*area_width+x
 00000C80  83 C0 CE	     2		add EAX, -50
 00000C83  C1 E0 02	     2		shl EAX, 2; EAX = (y*area_width+x)*4
 00000C86  03 05 0000000A R  2		add EAX, area
 00000C8C  81 38 00FF69B4    1		cmp dword ptr [EAX], 0FF69B4h
 00000C92  0F 84 000000DA    1		je ??0051
 00000C98  A1 00001D0A R     2		mov EAX, bomberman_y; EAX = y
 00000C9D  83 C0 00	     2		add EAX, 0
 00000CA0  BB 000003B6	     2		mov EBX, area_width
 00000CA5  F7 E3	     2		mul EBX; EAX = y*area_width 
 00000CA7  03 05 00001D06 R  2		add EAX, bomberman_x; EAX = y*area_width+x
 00000CAD  83 C0 CE	     2		add EAX, -50
 00000CB0  C1 E0 02	     2		shl EAX, 2; EAX = (y*area_width+x)*4
 00000CB3  03 05 0000000A R  2		add EAX, area
 00000CB9  81 38 00FFFFFF    1		cmp dword ptr [EAX], 0FFFFFFh
 00000CBF  0F 85 00000187    1		jne ??004F
 00000CC5  A1 00001D0A R     2		mov EAX, bomberman_y; EAX = y
 00000CCA  83 C0 00	     2		add EAX, 0
 00000CCD  BB 000003B6	     2		mov EBX, area_width
 00000CD2  F7 E3	     2		mul EBX; EAX = y*area_width 
 00000CD4  03 05 00001D06 R  2		add EAX, bomberman_x; EAX = y*area_width+x
 00000CDA  83 C0 CE	     2		add EAX, -50
 00000CDD  C1 E0 02	     2		shl EAX, 2; EAX = (y*area_width+x)*4
 00000CE0  03 05 0000000A R  2		add EAX, area
 00000CE6  83 38 00	     1		cmp dword ptr [EAX], 0h
 00000CE9  74 3A	     1		je ??0050
 00000CEB  8B 3D 00001D0A R  2		mov EDI, bomberman_y
 00000CF1  BE 00000000	     2		mov ESI, 0
 00000CF6		     2		??0052:
 00000CF6  8B C7	     3		mov eax, EDI; EAX = y
 00000CF8  BB 000003B6	     3		mov ebx, area_width
 00000CFD  F7 E3	     3		mul ebx; EAX = y*area_width
 00000CFF  03 05 00001D06 R  3		add EAX, bomberman_x; EAX = y*area_width+x
 00000D05  C1 E0 02	     3		shl eax, 2; EAX = (y*area_width+x)*4
 00000D08  03 05 0000000A R  3		add EAX, area
 00000D0E  B9 00000032	     3		mov ECX, 50
 00000D13		     3	??0053:
 00000D13  C7 00 00FFFFFF    3		mov dword ptr [eax], 0FFFFFFh
 00000D19  83 C0 04	     3		add EAX,4
 00000D1C  E2 F5	     3	loop ??0053
 00000D1E  46		     2		inc ESI
 00000D1F  47		     2		inc EDI
 00000D20  83 FE 32	     2		cmp ESI, 50
 00000D23  75 D1	     2		jne ??0052
 00000D25		     1		??0050:
 00000D25  83 05 00001D0A R  1		add bomberman_y, 0
	   00
 00000D2C  83 05 00001D06 R  1		add bomberman_x, -50
	   CE
 00000D33  8B 3D 00001D0A R  2		mov EDI, bomberman_y
 00000D39  BE 00000000	     2		mov ESI, 0
 00000D3E		     2		??0054:
 00000D3E  8B C7	     3		mov eax, EDI; EAX = y
 00000D40  BB 000003B6	     3		mov ebx, area_width
 00000D45  F7 E3	     3		mul ebx; EAX = y*area_width
 00000D47  03 05 00001D06 R  3		add EAX, bomberman_x; EAX = y*area_width+x
 00000D4D  C1 E0 02	     3		shl eax, 2; EAX = (y*area_width+x)*4
 00000D50  03 05 0000000A R  3		add EAX, area
 00000D56  B9 00000032	     3		mov ECX, 50
 00000D5B		     3	??0055:
 00000D5B  C7 00 00FF0000    3		mov dword ptr [eax], 0FF0000h
 00000D61  83 C0 04	     3		add EAX,4
 00000D64  E2 F5	     3	loop ??0055
 00000D66  46		     2		inc ESI
 00000D67  47		     2		inc EDI
 00000D68  83 FE 32	     2		cmp ESI, 50
 00000D6B  75 D1	     2		jne ??0054
 00000D6D  E9 000000DA	     1		jmp ??004F
 00000D72		     1		??0051:
 00000D72  C7 05 00001D2B R  2		mov enemy_alive,0
	   00000000
 00000D7C  C6 05 00001D0E R  2		mov bomb_check,0 
	   00
 00000D83  B8 000003B6	     2		mov eax, area_width
 00000D88  BB 000003B6	     2		mov ebx, area_height
 00000D8D  F7 E3	     2		mul ebx
 00000D8F  C1 E0 02	     2		shl eax, 2
 00000D92  50		     2		push eax
 00000D93  68 00A7A6A5	     2		push 0A7A6A5h ;coloram toata harta gri
 00000D98  FF 35 0000000A R  2		push area
 00000D9E  E8 00000000 E     2		call memset
 00000DA3  83 C4 0C	     2		add esp, 12
 00000DA6  68 000001DB	     3		push area_height/2
 00000DAB  68 000001C2	     3		push area_width/2-25
 00000DB0  FF 35 0000000A R  3		push area
 00000DB6  6A 44	     3		push 'D'
 00000DB8  E8 FFFFF243	     3		call make_text
 00000DBD  83 C4 10	     3		add esp, 16
 00000DC0  68 000001DB	     3		push area_height/2
 00000DC5  68 000001CC	     3		push area_width/2-15
 00000DCA  FF 35 0000000A R  3		push area
 00000DD0  6A 45	     3		push 'E'
 00000DD2  E8 FFFFF229	     3		call make_text
 00000DD7  83 C4 10	     3		add esp, 16
 00000DDA  68 000001DB	     3		push area_height/2
 00000DDF  68 000001D6	     3		push area_width/2-5
 00000DE4  FF 35 0000000A R  3		push area
 00000DEA  6A 46	     3		push 'F'
 00000DEC  E8 FFFFF20F	     3		call make_text
 00000DF1  83 C4 10	     3		add esp, 16
 00000DF4  68 000001DB	     3		push area_height/2
 00000DF9  68 000001E0	     3		push area_width/2+5
 00000DFE  FF 35 0000000A R  3		push area
 00000E04  6A 45	     3		push 'E'
 00000E06  E8 FFFFF1F5	     3		call make_text
 00000E0B  83 C4 10	     3		add esp, 16
 00000E0E  68 000001DB	     3		push area_height/2
 00000E13  68 000001EA	     3		push area_width/2+15
 00000E18  FF 35 0000000A R  3		push area
 00000E1E  6A 41	     3		push 'A'
 00000E20  E8 FFFFF1DB	     3		call make_text
 00000E25  83 C4 10	     3		add esp, 16
 00000E28  68 000001DB	     3		push area_height/2
 00000E2D  68 000001F4	     3		push area_width/2+25
 00000E32  FF 35 0000000A R  3		push area
 00000E38  6A 54	     3		push 'T'
 00000E3A  E8 FFFFF1C1	     3		call make_text
 00000E3F  83 C4 10	     3		add esp, 16
 00000E42  C7 05 00001D33 R  2		mov game_over_check, 1
	   00000001
 00000E4C		     1		??004F:
					press_button [ebp+arg2], [ebp+arg3], button_down_x, button_down_y, 0, 50
 00000E4C  8B 45 0C	     1		mov EAX, [ebp+arg2]
 00000E4F  3D 00000352	     1		cmp EAX, button_down_x
 00000E54  0F 8C 00000205    1		jl ??0056
 00000E5A  3D 00000384	     1		cmp EAX, button_down_x+50
 00000E5F  0F 8F 000001FA    1		jg ??0056
 00000E65  8B 45 10	     1		mov EAX, [ebp+arg3]
 00000E68  3D 00000384	     1		cmp EAX, button_down_y
 00000E6D  0F 8C 000001EC    1		jl ??0056
 00000E73  3D 000003B6	     1		cmp EAX, button_down_y+50
 00000E78  0F 8F 000001E1    1		jg ??0056
 00000E7E  A1 00001D0A R     2		mov EAX, bomberman_y; EAX = y
 00000E83  83 C0 32	     2		add EAX, 50
 00000E86  BB 000003B6	     2		mov EBX, area_width
 00000E8B  F7 E3	     2		mul EBX; EAX = y*area_width 
 00000E8D  03 05 00001D06 R  2		add EAX, bomberman_x; EAX = y*area_width+x
 00000E93  83 C0 00	     2		add EAX, 0
 00000E96  C1 E0 02	     2		shl EAX, 2; EAX = (y*area_width+x)*4
 00000E99  03 05 0000000A R  2		add EAX, area
 00000E9F  81 38 00FF69B4    1		cmp dword ptr [EAX], 0FF69B4h
 00000EA5  0F 84 000000DA    1		je ??0058
 00000EAB  A1 00001D0A R     2		mov EAX, bomberman_y; EAX = y
 00000EB0  83 C0 32	     2		add EAX, 50
 00000EB3  BB 000003B6	     2		mov EBX, area_width
 00000EB8  F7 E3	     2		mul EBX; EAX = y*area_width 
 00000EBA  03 05 00001D06 R  2		add EAX, bomberman_x; EAX = y*area_width+x
 00000EC0  83 C0 00	     2		add EAX, 0
 00000EC3  C1 E0 02	     2		shl EAX, 2; EAX = (y*area_width+x)*4
 00000EC6  03 05 0000000A R  2		add EAX, area
 00000ECC  81 38 00FFFFFF    1		cmp dword ptr [EAX], 0FFFFFFh
 00000ED2  0F 85 00000187    1		jne ??0056
 00000ED8  A1 00001D0A R     2		mov EAX, bomberman_y; EAX = y
 00000EDD  83 C0 32	     2		add EAX, 50
 00000EE0  BB 000003B6	     2		mov EBX, area_width
 00000EE5  F7 E3	     2		mul EBX; EAX = y*area_width 
 00000EE7  03 05 00001D06 R  2		add EAX, bomberman_x; EAX = y*area_width+x
 00000EED  83 C0 00	     2		add EAX, 0
 00000EF0  C1 E0 02	     2		shl EAX, 2; EAX = (y*area_width+x)*4
 00000EF3  03 05 0000000A R  2		add EAX, area
 00000EF9  83 38 00	     1		cmp dword ptr [EAX], 0h
 00000EFC  74 3A	     1		je ??0057
 00000EFE  8B 3D 00001D0A R  2		mov EDI, bomberman_y
 00000F04  BE 00000000	     2		mov ESI, 0
 00000F09		     2		??0059:
 00000F09  8B C7	     3		mov eax, EDI; EAX = y
 00000F0B  BB 000003B6	     3		mov ebx, area_width
 00000F10  F7 E3	     3		mul ebx; EAX = y*area_width
 00000F12  03 05 00001D06 R  3		add EAX, bomberman_x; EAX = y*area_width+x
 00000F18  C1 E0 02	     3		shl eax, 2; EAX = (y*area_width+x)*4
 00000F1B  03 05 0000000A R  3		add EAX, area
 00000F21  B9 00000032	     3		mov ECX, 50
 00000F26		     3	??005A:
 00000F26  C7 00 00FFFFFF    3		mov dword ptr [eax], 0FFFFFFh
 00000F2C  83 C0 04	     3		add EAX,4
 00000F2F  E2 F5	     3	loop ??005A
 00000F31  46		     2		inc ESI
 00000F32  47		     2		inc EDI
 00000F33  83 FE 32	     2		cmp ESI, 50
 00000F36  75 D1	     2		jne ??0059
 00000F38		     1		??0057:
 00000F38  83 05 00001D0A R  1		add bomberman_y, 50
	   32
 00000F3F  83 05 00001D06 R  1		add bomberman_x, 0
	   00
 00000F46  8B 3D 00001D0A R  2		mov EDI, bomberman_y
 00000F4C  BE 00000000	     2		mov ESI, 0
 00000F51		     2		??005B:
 00000F51  8B C7	     3		mov eax, EDI; EAX = y
 00000F53  BB 000003B6	     3		mov ebx, area_width
 00000F58  F7 E3	     3		mul ebx; EAX = y*area_width
 00000F5A  03 05 00001D06 R  3		add EAX, bomberman_x; EAX = y*area_width+x
 00000F60  C1 E0 02	     3		shl eax, 2; EAX = (y*area_width+x)*4
 00000F63  03 05 0000000A R  3		add EAX, area
 00000F69  B9 00000032	     3		mov ECX, 50
 00000F6E		     3	??005C:
 00000F6E  C7 00 00FF0000    3		mov dword ptr [eax], 0FF0000h
 00000F74  83 C0 04	     3		add EAX,4
 00000F77  E2 F5	     3	loop ??005C
 00000F79  46		     2		inc ESI
 00000F7A  47		     2		inc EDI
 00000F7B  83 FE 32	     2		cmp ESI, 50
 00000F7E  75 D1	     2		jne ??005B
 00000F80  E9 000000DA	     1		jmp ??0056
 00000F85		     1		??0058:
 00000F85  C7 05 00001D2B R  2		mov enemy_alive,0
	   00000000
 00000F8F  C6 05 00001D0E R  2		mov bomb_check,0 
	   00
 00000F96  B8 000003B6	     2		mov eax, area_width
 00000F9B  BB 000003B6	     2		mov ebx, area_height
 00000FA0  F7 E3	     2		mul ebx
 00000FA2  C1 E0 02	     2		shl eax, 2
 00000FA5  50		     2		push eax
 00000FA6  68 00A7A6A5	     2		push 0A7A6A5h ;coloram toata harta gri
 00000FAB  FF 35 0000000A R  2		push area
 00000FB1  E8 00000000 E     2		call memset
 00000FB6  83 C4 0C	     2		add esp, 12
 00000FB9  68 000001DB	     3		push area_height/2
 00000FBE  68 000001C2	     3		push area_width/2-25
 00000FC3  FF 35 0000000A R  3		push area
 00000FC9  6A 44	     3		push 'D'
 00000FCB  E8 FFFFF030	     3		call make_text
 00000FD0  83 C4 10	     3		add esp, 16
 00000FD3  68 000001DB	     3		push area_height/2
 00000FD8  68 000001CC	     3		push area_width/2-15
 00000FDD  FF 35 0000000A R  3		push area
 00000FE3  6A 45	     3		push 'E'
 00000FE5  E8 FFFFF016	     3		call make_text
 00000FEA  83 C4 10	     3		add esp, 16
 00000FED  68 000001DB	     3		push area_height/2
 00000FF2  68 000001D6	     3		push area_width/2-5
 00000FF7  FF 35 0000000A R  3		push area
 00000FFD  6A 46	     3		push 'F'
 00000FFF  E8 FFFFEFFC	     3		call make_text
 00001004  83 C4 10	     3		add esp, 16
 00001007  68 000001DB	     3		push area_height/2
 0000100C  68 000001E0	     3		push area_width/2+5
 00001011  FF 35 0000000A R  3		push area
 00001017  6A 45	     3		push 'E'
 00001019  E8 FFFFEFE2	     3		call make_text
 0000101E  83 C4 10	     3		add esp, 16
 00001021  68 000001DB	     3		push area_height/2
 00001026  68 000001EA	     3		push area_width/2+15
 0000102B  FF 35 0000000A R  3		push area
 00001031  6A 41	     3		push 'A'
 00001033  E8 FFFFEFC8	     3		call make_text
 00001038  83 C4 10	     3		add esp, 16
 0000103B  68 000001DB	     3		push area_height/2
 00001040  68 000001F4	     3		push area_width/2+25
 00001045  FF 35 0000000A R  3		push area
 0000104B  6A 54	     3		push 'T'
 0000104D  E8 FFFFEFAE	     3		call make_text
 00001052  83 C4 10	     3		add esp, 16
 00001055  C7 05 00001D33 R  2		mov game_over_check, 1
	   00000001
 0000105F		     1		??0056:
					press_button [ebp+arg2], [ebp+arg3], button_right_x, button_right_y, 50, 0
 0000105F  8B 45 0C	     1		mov EAX, [ebp+arg2]
 00001062  3D 00000384	     1		cmp EAX, button_right_x
 00001067  0F 8C 00000205    1		jl ??005D
 0000106D  3D 000003B6	     1		cmp EAX, button_right_x+50
 00001072  0F 8F 000001FA    1		jg ??005D
 00001078  8B 45 10	     1		mov EAX, [ebp+arg3]
 0000107B  3D 00000352	     1		cmp EAX, button_right_y
 00001080  0F 8C 000001EC    1		jl ??005D
 00001086  3D 00000384	     1		cmp EAX, button_right_y+50
 0000108B  0F 8F 000001E1    1		jg ??005D
 00001091  A1 00001D0A R     2		mov EAX, bomberman_y; EAX = y
 00001096  83 C0 00	     2		add EAX, 0
 00001099  BB 000003B6	     2		mov EBX, area_width
 0000109E  F7 E3	     2		mul EBX; EAX = y*area_width 
 000010A0  03 05 00001D06 R  2		add EAX, bomberman_x; EAX = y*area_width+x
 000010A6  83 C0 32	     2		add EAX, 50
 000010A9  C1 E0 02	     2		shl EAX, 2; EAX = (y*area_width+x)*4
 000010AC  03 05 0000000A R  2		add EAX, area
 000010B2  81 38 00FF69B4    1		cmp dword ptr [EAX], 0FF69B4h
 000010B8  0F 84 000000DA    1		je ??005F
 000010BE  A1 00001D0A R     2		mov EAX, bomberman_y; EAX = y
 000010C3  83 C0 00	     2		add EAX, 0
 000010C6  BB 000003B6	     2		mov EBX, area_width
 000010CB  F7 E3	     2		mul EBX; EAX = y*area_width 
 000010CD  03 05 00001D06 R  2		add EAX, bomberman_x; EAX = y*area_width+x
 000010D3  83 C0 32	     2		add EAX, 50
 000010D6  C1 E0 02	     2		shl EAX, 2; EAX = (y*area_width+x)*4
 000010D9  03 05 0000000A R  2		add EAX, area
 000010DF  81 38 00FFFFFF    1		cmp dword ptr [EAX], 0FFFFFFh
 000010E5  0F 85 00000187    1		jne ??005D
 000010EB  A1 00001D0A R     2		mov EAX, bomberman_y; EAX = y
 000010F0  83 C0 00	     2		add EAX, 0
 000010F3  BB 000003B6	     2		mov EBX, area_width
 000010F8  F7 E3	     2		mul EBX; EAX = y*area_width 
 000010FA  03 05 00001D06 R  2		add EAX, bomberman_x; EAX = y*area_width+x
 00001100  83 C0 32	     2		add EAX, 50
 00001103  C1 E0 02	     2		shl EAX, 2; EAX = (y*area_width+x)*4
 00001106  03 05 0000000A R  2		add EAX, area
 0000110C  83 38 00	     1		cmp dword ptr [EAX], 0h
 0000110F  74 3A	     1		je ??005E
 00001111  8B 3D 00001D0A R  2		mov EDI, bomberman_y
 00001117  BE 00000000	     2		mov ESI, 0
 0000111C		     2		??0060:
 0000111C  8B C7	     3		mov eax, EDI; EAX = y
 0000111E  BB 000003B6	     3		mov ebx, area_width
 00001123  F7 E3	     3		mul ebx; EAX = y*area_width
 00001125  03 05 00001D06 R  3		add EAX, bomberman_x; EAX = y*area_width+x
 0000112B  C1 E0 02	     3		shl eax, 2; EAX = (y*area_width+x)*4
 0000112E  03 05 0000000A R  3		add EAX, area
 00001134  B9 00000032	     3		mov ECX, 50
 00001139		     3	??0061:
 00001139  C7 00 00FFFFFF    3		mov dword ptr [eax], 0FFFFFFh
 0000113F  83 C0 04	     3		add EAX,4
 00001142  E2 F5	     3	loop ??0061
 00001144  46		     2		inc ESI
 00001145  47		     2		inc EDI
 00001146  83 FE 32	     2		cmp ESI, 50
 00001149  75 D1	     2		jne ??0060
 0000114B		     1		??005E:
 0000114B  83 05 00001D0A R  1		add bomberman_y, 0
	   00
 00001152  83 05 00001D06 R  1		add bomberman_x, 50
	   32
 00001159  8B 3D 00001D0A R  2		mov EDI, bomberman_y
 0000115F  BE 00000000	     2		mov ESI, 0
 00001164		     2		??0062:
 00001164  8B C7	     3		mov eax, EDI; EAX = y
 00001166  BB 000003B6	     3		mov ebx, area_width
 0000116B  F7 E3	     3		mul ebx; EAX = y*area_width
 0000116D  03 05 00001D06 R  3		add EAX, bomberman_x; EAX = y*area_width+x
 00001173  C1 E0 02	     3		shl eax, 2; EAX = (y*area_width+x)*4
 00001176  03 05 0000000A R  3		add EAX, area
 0000117C  B9 00000032	     3		mov ECX, 50
 00001181		     3	??0063:
 00001181  C7 00 00FF0000    3		mov dword ptr [eax], 0FF0000h
 00001187  83 C0 04	     3		add EAX,4
 0000118A  E2 F5	     3	loop ??0063
 0000118C  46		     2		inc ESI
 0000118D  47		     2		inc EDI
 0000118E  83 FE 32	     2		cmp ESI, 50
 00001191  75 D1	     2		jne ??0062
 00001193  E9 000000DA	     1		jmp ??005D
 00001198		     1		??005F:
 00001198  C7 05 00001D2B R  2		mov enemy_alive,0
	   00000000
 000011A2  C6 05 00001D0E R  2		mov bomb_check,0 
	   00
 000011A9  B8 000003B6	     2		mov eax, area_width
 000011AE  BB 000003B6	     2		mov ebx, area_height
 000011B3  F7 E3	     2		mul ebx
 000011B5  C1 E0 02	     2		shl eax, 2
 000011B8  50		     2		push eax
 000011B9  68 00A7A6A5	     2		push 0A7A6A5h ;coloram toata harta gri
 000011BE  FF 35 0000000A R  2		push area
 000011C4  E8 00000000 E     2		call memset
 000011C9  83 C4 0C	     2		add esp, 12
 000011CC  68 000001DB	     3		push area_height/2
 000011D1  68 000001C2	     3		push area_width/2-25
 000011D6  FF 35 0000000A R  3		push area
 000011DC  6A 44	     3		push 'D'
 000011DE  E8 FFFFEE1D	     3		call make_text
 000011E3  83 C4 10	     3		add esp, 16
 000011E6  68 000001DB	     3		push area_height/2
 000011EB  68 000001CC	     3		push area_width/2-15
 000011F0  FF 35 0000000A R  3		push area
 000011F6  6A 45	     3		push 'E'
 000011F8  E8 FFFFEE03	     3		call make_text
 000011FD  83 C4 10	     3		add esp, 16
 00001200  68 000001DB	     3		push area_height/2
 00001205  68 000001D6	     3		push area_width/2-5
 0000120A  FF 35 0000000A R  3		push area
 00001210  6A 46	     3		push 'F'
 00001212  E8 FFFFEDE9	     3		call make_text
 00001217  83 C4 10	     3		add esp, 16
 0000121A  68 000001DB	     3		push area_height/2
 0000121F  68 000001E0	     3		push area_width/2+5
 00001224  FF 35 0000000A R  3		push area
 0000122A  6A 45	     3		push 'E'
 0000122C  E8 FFFFEDCF	     3		call make_text
 00001231  83 C4 10	     3		add esp, 16
 00001234  68 000001DB	     3		push area_height/2
 00001239  68 000001EA	     3		push area_width/2+15
 0000123E  FF 35 0000000A R  3		push area
 00001244  6A 41	     3		push 'A'
 00001246  E8 FFFFEDB5	     3		call make_text
 0000124B  83 C4 10	     3		add esp, 16
 0000124E  68 000001DB	     3		push area_height/2
 00001253  68 000001F4	     3		push area_width/2+25
 00001258  FF 35 0000000A R  3		push area
 0000125E  6A 54	     3		push 'T'
 00001260  E8 FFFFED9B	     3		call make_text
 00001265  83 C4 10	     3		add esp, 16
 00001268  C7 05 00001D33 R  2		mov game_over_check, 1
	   00000001
 00001272		     1		??005D:
					press_button_bomb [ebp+arg2], [ebp+arg3]
 00001272  8B 45 0C	     1		mov EAX, [ebp+arg2]
 00001275  3D 00000352	     1		cmp EAX, button_bomb_x
 0000127A  7C 76	     1		jl ??0064
 0000127C  3D 00000384	     1		cmp EAX, button_bomb_x+50
 00001281  7F 6F	     1		jg ??0064
 00001283  8B 45 10	     1		mov EAX, [ebp+arg3]
 00001286  3D 00000352	     1		cmp EAX, button_bomb_y
 0000128B  7C 65	     1		jl ??0064
 0000128D  3D 00000384	     1		cmp EAX, button_bomb_y+50
 00001292  7F 5E	     1		jg ??0064
 00001294  80 3D 00001D0E R  1		cmp bomb_check, 0
	   00
 0000129B  75 55	     1		jne ??0064
 0000129D  8B 3D 00001D0A R  2		mov EDI, bomberman_y
 000012A3  BE 00000000	     2		mov ESI, 0
 000012A8		     2		??0065:
 000012A8  8B C7	     3		mov eax, EDI; EAX = y
 000012AA  BB 000003B6	     3		mov ebx, area_width
 000012AF  F7 E3	     3		mul ebx; EAX = y*area_width
 000012B1  03 05 00001D06 R  3		add EAX, bomberman_x; EAX = y*area_width+x
 000012B7  C1 E0 02	     3		shl eax, 2; EAX = (y*area_width+x)*4
 000012BA  03 05 0000000A R  3		add EAX, area
 000012C0  B9 00000032	     3		mov ECX, 50
 000012C5		     3	??0066:
 000012C5  C7 00 00000000    3		mov dword ptr [eax], 0h
 000012CB  83 C0 04	     3		add EAX,4
 000012CE  E2 F5	     3	loop ??0066
 000012D0  46		     2		inc ESI
 000012D1  47		     2		inc EDI
 000012D2  83 FE 32	     2		cmp ESI, 50
 000012D5  75 D1	     2		jne ??0065
 000012D7  C6 05 00001D0E R  1		mov bomb_check,1 
	   01
 000012DE  A1 00001D06 R     1		mov EAX, bomberman_x
 000012E3  A3 00001D0F R     1		mov bomb_x, EAX
 000012E8  A1 00001D0A R     1		mov EAX, bomberman_y
 000012ED  A3 00001D13 R     1		mov bomb_y, EAX
 000012F2		     1		??0064:
					
 000012F2			evt_timer:
					;verificam daca jucatorul a pierdut
 000012F2  83 3D 00001D33 R		cmp game_over_check,1
	   01
 000012F9  0F 84 00001A21		je final_draw
					
					;verificam bomba
 000012FF  FF 05 0000000E R		inc counter
					bomb_mechanism
 00001305  83 3D 00001D17 R  1		cmp explosion_check,1
	   01
 0000130C  0F 84 00000BE3    1		je explosion_timer
 00001312  80 3D 00001D0E R  1		cmp bomb_check,1
	   01
 00001319  0F 85 0000175F    1		jne no_bomb
 0000131F  A1 00001D13 R     2		mov EAX, bomb_y; EAX = y
 00001324  83 C0 00	     2		add EAX, 0
 00001327  BB 000003B6	     2		mov EBX, area_width
 0000132C  F7 E3	     2		mul EBX; EAX = y*area_width 
 0000132E  03 05 00001D0F R  2		add EAX, bomb_x; EAX = y*area_width+x
 00001334  83 C0 00	     2		add EAX, 0
 00001337  C1 E0 02	     2		shl EAX, 2; EAX = (y*area_width+x)*4
 0000133A  03 05 0000000A R  2		add EAX, area
 00001340  83 38 00	     1		cmp dword ptr [EAX], 0h
 00001343  75 3C	     1		jne black
 00001345  8B 3D 00001D13 R  2		mov EDI, bomb_y
 0000134B  BE 00000000	     2		mov ESI, 0
 00001350		     2		??0067:
 00001350  8B C7	     3		mov eax, EDI; EAX = y
 00001352  BB 000003B6	     3		mov ebx, area_width
 00001357  F7 E3	     3		mul ebx; EAX = y*area_width
 00001359  03 05 00001D0F R  3		add EAX, bomb_x; EAX = y*area_width+x
 0000135F  C1 E0 02	     3		shl eax, 2; EAX = (y*area_width+x)*4
 00001362  03 05 0000000A R  3		add EAX, area
 00001368  B9 00000032	     3		mov ECX, 50
 0000136D		     3	??0068:
 0000136D  C7 00 00F59B00    3		mov dword ptr [eax], 0F59B00h
 00001373  83 C0 04	     3		add EAX,4
 00001376  E2 F5	     3	loop ??0068
 00001378  46		     2		inc ESI
 00001379  47		     2		inc EDI
 0000137A  83 FE 32	     2		cmp ESI, 50
 0000137D  75 D1	     2		jne ??0067
 0000137F  EB 3A	     1		jmp off
 00001381		     1		black:
 00001381  8B 3D 00001D13 R  2		mov EDI, bomb_y
 00001387  BE 00000000	     2		mov ESI, 0
 0000138C		     2		??0069:
 0000138C  8B C7	     3		mov eax, EDI; EAX = y
 0000138E  BB 000003B6	     3		mov ebx, area_width
 00001393  F7 E3	     3		mul ebx; EAX = y*area_width
 00001395  03 05 00001D0F R  3		add EAX, bomb_x; EAX = y*area_width+x
 0000139B  C1 E0 02	     3		shl eax, 2; EAX = (y*area_width+x)*4
 0000139E  03 05 0000000A R  3		add EAX, area
 000013A4  B9 00000032	     3		mov ECX, 50
 000013A9		     3	??006A:
 000013A9  C7 00 00000000    3		mov dword ptr [eax], 0h
 000013AF  83 C0 04	     3		add EAX,4
 000013B2  E2 F5	     3	loop ??006A
 000013B4  46		     2		inc ESI
 000013B5  47		     2		inc EDI
 000013B6  83 FE 32	     2		cmp ESI, 50
 000013B9  75 D1	     2		jne ??0069
 000013BB		     1		off:
 000013BB  83 3D 00000012 R  1		cmp counterBomb, 10
	   0A
 000013C2  0F 85 000016B0    1		jne no_explosion
 000013C8  C7 05 00000012 R  1		mov counterBomb, 0
	   00000000
 000013D2  C7 05 00001D17 R  1		mov explosion_check,1
	   00000001
 000013DC  8B 35 00001D0F R  3		mov ESI, bomb_x
 000013E2  89 35 00001D3B R  3		mov aux1, ESI
 000013E8  8B 35 00001D13 R  3		mov ESI, bomb_y
 000013EE  89 35 00001D3F R  3		mov aux2, ESI
 000013F4  C7 05 00001D37 R  3		mov aux, 0
	   00000000
 000013FE		     3		??006E:
 000013FE  A1 00001D13 R     4		mov EAX, bomb_y; EAX = y
 00001403  83 C0 00	     4		add EAX, 0
 00001406  BB 000003B6	     4		mov EBX, area_width
 0000140B  F7 E3	     4		mul EBX; EAX = y*area_width 
 0000140D  03 05 00001D0F R  4		add EAX, bomb_x; EAX = y*area_width+x
 00001413  83 C0 32	     4		add EAX, 50
 00001416  C1 E0 02	     4		shl EAX, 2; EAX = (y*area_width+x)*4
 00001419  03 05 0000000A R  4		add EAX, area
 0000141F  81 38 00FF69B4    3		cmp dword ptr [EAX], 0FF69B4h
 00001425  0F 84 000001B5    3		je ??0072
 0000142B  81 38 00FF0000    3		cmp dword ptr [EAX], 0FF0000h
 00001431  0F 84 00000080    3		je ??0071
 00001437  81 38 00A0522D    3		cmp dword ptr [EAX], 0A0522Dh
 0000143D  0F 84 00000153    3		je ??0070
 00001443  81 38 00F59B00    3		cmp dword ptr [EAX], 0F59B00h
 00001449  74 0C	     3		je ??006F
 0000144B  81 38 00FFFFFF    3		cmp dword ptr [EAX], 0FFFFFFh
 00001451  0F 85 000001DB    3		jne ??006D
 00001457		     3		??006F:
 00001457  83 05 00001D0F R  3		add bomb_x, 50
	   32
 0000145E  83 05 00001D13 R  3		add bomb_y, 0
	   00
 00001465  8B 3D 00001D13 R  4		mov EDI, bomb_y
 0000146B  BE 00000000	     4		mov ESI, 0
 00001470		     4		??0073:
 00001470  8B C7	     5		mov eax, EDI; EAX = y
 00001472  BB 000003B6	     5		mov ebx, area_width
 00001477  F7 E3	     5		mul ebx; EAX = y*area_width
 00001479  03 05 00001D0F R  5		add EAX, bomb_x; EAX = y*area_width+x
 0000147F  C1 E0 02	     5		shl eax, 2; EAX = (y*area_width+x)*4
 00001482  03 05 0000000A R  5		add EAX, area
 00001488  B9 00000032	     5		mov ECX, 50
 0000148D		     5	??0074:
 0000148D  C7 00 00F59B00    5		mov dword ptr [eax], 0F59B00h
 00001493  83 C0 04	     5		add EAX,4
 00001496  E2 F5	     5	loop ??0074
 00001498  46		     4		inc ESI
 00001499  47		     4		inc EDI
 0000149A  83 FE 32	     4		cmp ESI, 50
 0000149D  75 D1	     4		jne ??0073
 0000149F  FF 05 00001D37 R  3		inc aux
 000014A5  83 3D 00001D37 R  3		cmp aux, 4
	   04
 000014AC  0F 85 FFFFFF4C    3		jne ??006E
 000014B2  E9 0000017B	     3		jmp ??006D
 000014B7		     3		??0071:
 000014B7  C7 05 00001D2B R  4		mov enemy_alive,0
	   00000000
 000014C1  C6 05 00001D0E R  4		mov bomb_check,0 
	   00
 000014C8  B8 000003B6	     4		mov eax, area_width
 000014CD  BB 000003B6	     4		mov ebx, area_height
 000014D2  F7 E3	     4		mul ebx
 000014D4  C1 E0 02	     4		shl eax, 2
 000014D7  50		     4		push eax
 000014D8  68 00A7A6A5	     4		push 0A7A6A5h ;coloram toata harta gri
 000014DD  FF 35 0000000A R  4		push area
 000014E3  E8 00000000 E     4		call memset
 000014E8  83 C4 0C	     4		add esp, 12
 000014EB  68 000001DB	     5		push area_height/2
 000014F0  68 000001C2	     5		push area_width/2-25
 000014F5  FF 35 0000000A R  5		push area
 000014FB  6A 44	     5		push 'D'
 000014FD  E8 FFFFEAFE	     5		call make_text
 00001502  83 C4 10	     5		add esp, 16
 00001505  68 000001DB	     5		push area_height/2
 0000150A  68 000001CC	     5		push area_width/2-15
 0000150F  FF 35 0000000A R  5		push area
 00001515  6A 45	     5		push 'E'
 00001517  E8 FFFFEAE4	     5		call make_text
 0000151C  83 C4 10	     5		add esp, 16
 0000151F  68 000001DB	     5		push area_height/2
 00001524  68 000001D6	     5		push area_width/2-5
 00001529  FF 35 0000000A R  5		push area
 0000152F  6A 46	     5		push 'F'
 00001531  E8 FFFFEACA	     5		call make_text
 00001536  83 C4 10	     5		add esp, 16
 00001539  68 000001DB	     5		push area_height/2
 0000153E  68 000001E0	     5		push area_width/2+5
 00001543  FF 35 0000000A R  5		push area
 00001549  6A 45	     5		push 'E'
 0000154B  E8 FFFFEAB0	     5		call make_text
 00001550  83 C4 10	     5		add esp, 16
 00001553  68 000001DB	     5		push area_height/2
 00001558  68 000001EA	     5		push area_width/2+15
 0000155D  FF 35 0000000A R  5		push area
 00001563  6A 41	     5		push 'A'
 00001565  E8 FFFFEA96	     5		call make_text
 0000156A  83 C4 10	     5		add esp, 16
 0000156D  68 000001DB	     5		push area_height/2
 00001572  68 000001F4	     5		push area_width/2+25
 00001577  FF 35 0000000A R  5		push area
 0000157D  6A 54	     5		push 'T'
 0000157F  E8 FFFFEA7C	     5		call make_text
 00001584  83 C4 10	     5		add esp, 16
 00001587  C7 05 00001D33 R  4		mov game_over_check, 1
	   00000001
 00001591  E9 0000009C	     3		jmp ??006D
 00001596		     3		??0070:
 00001596  83 05 00001D0F R  3		add bomb_x, 50
	   32
 0000159D  83 05 00001D13 R  3		add bomb_y, 0
	   00
 000015A4  8B 3D 00001D13 R  4		mov EDI, bomb_y
 000015AA  BE 00000000	     4		mov ESI, 0
 000015AF		     4		??0075:
 000015AF  8B C7	     5		mov eax, EDI; EAX = y
 000015B1  BB 000003B6	     5		mov ebx, area_width
 000015B6  F7 E3	     5		mul ebx; EAX = y*area_width
 000015B8  03 05 00001D0F R  5		add EAX, bomb_x; EAX = y*area_width+x
 000015BE  C1 E0 02	     5		shl eax, 2; EAX = (y*area_width+x)*4
 000015C1  03 05 0000000A R  5		add EAX, area
 000015C7  B9 00000032	     5		mov ECX, 50
 000015CC		     5	??0076:
 000015CC  C7 00 00FFFFFF    5		mov dword ptr [eax], 0FFFFFFh
 000015D2  83 C0 04	     5		add EAX,4
 000015D5  E2 F5	     5	loop ??0076
 000015D7  46		     4		inc ESI
 000015D8  47		     4		inc EDI
 000015D9  83 FE 32	     4		cmp ESI, 50
 000015DC  75 D1	     4		jne ??0075
 000015DE  EB 52	     3		jmp ??006D
 000015E0		     3		??0072:
 000015E0  83 05 00001D0F R  3		add bomb_x, 50
	   32
 000015E7  83 05 00001D13 R  3		add bomb_y, 0
	   00
 000015EE  8B 3D 00001D13 R  4		mov EDI, bomb_y
 000015F4  BE 00000000	     4		mov ESI, 0
 000015F9		     4		??0077:
 000015F9  8B C7	     5		mov eax, EDI; EAX = y
 000015FB  BB 000003B6	     5		mov ebx, area_width
 00001600  F7 E3	     5		mul ebx; EAX = y*area_width
 00001602  03 05 00001D0F R  5		add EAX, bomb_x; EAX = y*area_width+x
 00001608  C1 E0 02	     5		shl eax, 2; EAX = (y*area_width+x)*4
 0000160B  03 05 0000000A R  5		add EAX, area
 00001611  B9 00000032	     5		mov ECX, 50
 00001616		     5	??0078:
 00001616  C7 00 00FFFFFF    5		mov dword ptr [eax], 0FFFFFFh
 0000161C  83 C0 04	     5		add EAX,4
 0000161F  E2 F5	     5	loop ??0078
 00001621  46		     4		inc ESI
 00001622  47		     4		inc EDI
 00001623  83 FE 32	     4		cmp ESI, 50
 00001626  75 D1	     4		jne ??0077
 00001628  C7 05 00001D2B R  3		mov enemy_alive,0
	   00000000
 00001632		     3		??006D:
 00001632  8B 35 00001D3B R  3		mov ESI, aux1
 00001638  89 35 00001D0F R  3		mov bomb_x, ESI
 0000163E  8B 35 00001D3F R  3		mov ESI, aux2
 00001644  89 35 00001D13 R  3		mov bomb_y,ESI
 0000164A  8B 35 00001D0F R  3		mov ESI, bomb_x
 00001650  89 35 00001D3B R  3		mov aux1, ESI
 00001656  8B 35 00001D13 R  3		mov ESI, bomb_y
 0000165C  89 35 00001D3F R  3		mov aux2, ESI
 00001662  C7 05 00001D37 R  3		mov aux, 0
	   00000000
 0000166C		     3		??007A:
 0000166C  A1 00001D13 R     4		mov EAX, bomb_y; EAX = y
 00001671  83 C0 00	     4		add EAX, 0
 00001674  BB 000003B6	     4		mov EBX, area_width
 00001679  F7 E3	     4		mul EBX; EAX = y*area_width 
 0000167B  03 05 00001D0F R  4		add EAX, bomb_x; EAX = y*area_width+x
 00001681  83 C0 CE	     4		add EAX, -50
 00001684  C1 E0 02	     4		shl EAX, 2; EAX = (y*area_width+x)*4
 00001687  03 05 0000000A R  4		add EAX, area
 0000168D  81 38 00FF69B4    3		cmp dword ptr [EAX], 0FF69B4h
 00001693  0F 84 000001B5    3		je ??007E
 00001699  81 38 00FF0000    3		cmp dword ptr [EAX], 0FF0000h
 0000169F  0F 84 00000080    3		je ??007D
 000016A5  81 38 00A0522D    3		cmp dword ptr [EAX], 0A0522Dh
 000016AB  0F 84 00000153    3		je ??007C
 000016B1  81 38 00F59B00    3		cmp dword ptr [EAX], 0F59B00h
 000016B7  74 0C	     3		je ??007B
 000016B9  81 38 00FFFFFF    3		cmp dword ptr [EAX], 0FFFFFFh
 000016BF  0F 85 000001DB    3		jne ??0079
 000016C5		     3		??007B:
 000016C5  83 05 00001D0F R  3		add bomb_x, -50
	   CE
 000016CC  83 05 00001D13 R  3		add bomb_y, 0
	   00
 000016D3  8B 3D 00001D13 R  4		mov EDI, bomb_y
 000016D9  BE 00000000	     4		mov ESI, 0
 000016DE		     4		??007F:
 000016DE  8B C7	     5		mov eax, EDI; EAX = y
 000016E0  BB 000003B6	     5		mov ebx, area_width
 000016E5  F7 E3	     5		mul ebx; EAX = y*area_width
 000016E7  03 05 00001D0F R  5		add EAX, bomb_x; EAX = y*area_width+x
 000016ED  C1 E0 02	     5		shl eax, 2; EAX = (y*area_width+x)*4
 000016F0  03 05 0000000A R  5		add EAX, area
 000016F6  B9 00000032	     5		mov ECX, 50
 000016FB		     5	??0080:
 000016FB  C7 00 00F59B00    5		mov dword ptr [eax], 0F59B00h
 00001701  83 C0 04	     5		add EAX,4
 00001704  E2 F5	     5	loop ??0080
 00001706  46		     4		inc ESI
 00001707  47		     4		inc EDI
 00001708  83 FE 32	     4		cmp ESI, 50
 0000170B  75 D1	     4		jne ??007F
 0000170D  FF 05 00001D37 R  3		inc aux
 00001713  83 3D 00001D37 R  3		cmp aux, 4
	   04
 0000171A  0F 85 FFFFFF4C    3		jne ??007A
 00001720  E9 0000017B	     3		jmp ??0079
 00001725		     3		??007D:
 00001725  C7 05 00001D2B R  4		mov enemy_alive,0
	   00000000
 0000172F  C6 05 00001D0E R  4		mov bomb_check,0 
	   00
 00001736  B8 000003B6	     4		mov eax, area_width
 0000173B  BB 000003B6	     4		mov ebx, area_height
 00001740  F7 E3	     4		mul ebx
 00001742  C1 E0 02	     4		shl eax, 2
 00001745  50		     4		push eax
 00001746  68 00A7A6A5	     4		push 0A7A6A5h ;coloram toata harta gri
 0000174B  FF 35 0000000A R  4		push area
 00001751  E8 00000000 E     4		call memset
 00001756  83 C4 0C	     4		add esp, 12
 00001759  68 000001DB	     5		push area_height/2
 0000175E  68 000001C2	     5		push area_width/2-25
 00001763  FF 35 0000000A R  5		push area
 00001769  6A 44	     5		push 'D'
 0000176B  E8 FFFFE890	     5		call make_text
 00001770  83 C4 10	     5		add esp, 16
 00001773  68 000001DB	     5		push area_height/2
 00001778  68 000001CC	     5		push area_width/2-15
 0000177D  FF 35 0000000A R  5		push area
 00001783  6A 45	     5		push 'E'
 00001785  E8 FFFFE876	     5		call make_text
 0000178A  83 C4 10	     5		add esp, 16
 0000178D  68 000001DB	     5		push area_height/2
 00001792  68 000001D6	     5		push area_width/2-5
 00001797  FF 35 0000000A R  5		push area
 0000179D  6A 46	     5		push 'F'
 0000179F  E8 FFFFE85C	     5		call make_text
 000017A4  83 C4 10	     5		add esp, 16
 000017A7  68 000001DB	     5		push area_height/2
 000017AC  68 000001E0	     5		push area_width/2+5
 000017B1  FF 35 0000000A R  5		push area
 000017B7  6A 45	     5		push 'E'
 000017B9  E8 FFFFE842	     5		call make_text
 000017BE  83 C4 10	     5		add esp, 16
 000017C1  68 000001DB	     5		push area_height/2
 000017C6  68 000001EA	     5		push area_width/2+15
 000017CB  FF 35 0000000A R  5		push area
 000017D1  6A 41	     5		push 'A'
 000017D3  E8 FFFFE828	     5		call make_text
 000017D8  83 C4 10	     5		add esp, 16
 000017DB  68 000001DB	     5		push area_height/2
 000017E0  68 000001F4	     5		push area_width/2+25
 000017E5  FF 35 0000000A R  5		push area
 000017EB  6A 54	     5		push 'T'
 000017ED  E8 FFFFE80E	     5		call make_text
 000017F2  83 C4 10	     5		add esp, 16
 000017F5  C7 05 00001D33 R  4		mov game_over_check, 1
	   00000001
 000017FF  E9 0000009C	     3		jmp ??0079
 00001804		     3		??007C:
 00001804  83 05 00001D0F R  3		add bomb_x, -50
	   CE
 0000180B  83 05 00001D13 R  3		add bomb_y, 0
	   00
 00001812  8B 3D 00001D13 R  4		mov EDI, bomb_y
 00001818  BE 00000000	     4		mov ESI, 0
 0000181D		     4		??0081:
 0000181D  8B C7	     5		mov eax, EDI; EAX = y
 0000181F  BB 000003B6	     5		mov ebx, area_width
 00001824  F7 E3	     5		mul ebx; EAX = y*area_width
 00001826  03 05 00001D0F R  5		add EAX, bomb_x; EAX = y*area_width+x
 0000182C  C1 E0 02	     5		shl eax, 2; EAX = (y*area_width+x)*4
 0000182F  03 05 0000000A R  5		add EAX, area
 00001835  B9 00000032	     5		mov ECX, 50
 0000183A		     5	??0082:
 0000183A  C7 00 00FFFFFF    5		mov dword ptr [eax], 0FFFFFFh
 00001840  83 C0 04	     5		add EAX,4
 00001843  E2 F5	     5	loop ??0082
 00001845  46		     4		inc ESI
 00001846  47		     4		inc EDI
 00001847  83 FE 32	     4		cmp ESI, 50
 0000184A  75 D1	     4		jne ??0081
 0000184C  EB 52	     3		jmp ??0079
 0000184E		     3		??007E:
 0000184E  83 05 00001D0F R  3		add bomb_x, -50
	   CE
 00001855  83 05 00001D13 R  3		add bomb_y, 0
	   00
 0000185C  8B 3D 00001D13 R  4		mov EDI, bomb_y
 00001862  BE 00000000	     4		mov ESI, 0
 00001867		     4		??0083:
 00001867  8B C7	     5		mov eax, EDI; EAX = y
 00001869  BB 000003B6	     5		mov ebx, area_width
 0000186E  F7 E3	     5		mul ebx; EAX = y*area_width
 00001870  03 05 00001D0F R  5		add EAX, bomb_x; EAX = y*area_width+x
 00001876  C1 E0 02	     5		shl eax, 2; EAX = (y*area_width+x)*4
 00001879  03 05 0000000A R  5		add EAX, area
 0000187F  B9 00000032	     5		mov ECX, 50
 00001884		     5	??0084:
 00001884  C7 00 00FFFFFF    5		mov dword ptr [eax], 0FFFFFFh
 0000188A  83 C0 04	     5		add EAX,4
 0000188D  E2 F5	     5	loop ??0084
 0000188F  46		     4		inc ESI
 00001890  47		     4		inc EDI
 00001891  83 FE 32	     4		cmp ESI, 50
 00001894  75 D1	     4		jne ??0083
 00001896  C7 05 00001D2B R  3		mov enemy_alive,0
	   00000000
 000018A0		     3		??0079:
 000018A0  8B 35 00001D3B R  3		mov ESI, aux1
 000018A6  89 35 00001D0F R  3		mov bomb_x, ESI
 000018AC  8B 35 00001D3F R  3		mov ESI, aux2
 000018B2  89 35 00001D13 R  3		mov bomb_y,ESI
 000018B8  8B 35 00001D0F R  3		mov ESI, bomb_x
 000018BE  89 35 00001D3B R  3		mov aux1, ESI
 000018C4  8B 35 00001D13 R  3		mov ESI, bomb_y
 000018CA  89 35 00001D3F R  3		mov aux2, ESI
 000018D0  C7 05 00001D37 R  3		mov aux, 0
	   00000000
 000018DA		     3		??0086:
 000018DA  A1 00001D13 R     4		mov EAX, bomb_y; EAX = y
 000018DF  83 C0 CE	     4		add EAX, -50
 000018E2  BB 000003B6	     4		mov EBX, area_width
 000018E7  F7 E3	     4		mul EBX; EAX = y*area_width 
 000018E9  03 05 00001D0F R  4		add EAX, bomb_x; EAX = y*area_width+x
 000018EF  83 C0 00	     4		add EAX, 0
 000018F2  C1 E0 02	     4		shl EAX, 2; EAX = (y*area_width+x)*4
 000018F5  03 05 0000000A R  4		add EAX, area
 000018FB  81 38 00FF69B4    3		cmp dword ptr [EAX], 0FF69B4h
 00001901  0F 84 000001B5    3		je ??008A
 00001907  81 38 00FF0000    3		cmp dword ptr [EAX], 0FF0000h
 0000190D  0F 84 00000080    3		je ??0089
 00001913  81 38 00A0522D    3		cmp dword ptr [EAX], 0A0522Dh
 00001919  0F 84 00000153    3		je ??0088
 0000191F  81 38 00F59B00    3		cmp dword ptr [EAX], 0F59B00h
 00001925  74 0C	     3		je ??0087
 00001927  81 38 00FFFFFF    3		cmp dword ptr [EAX], 0FFFFFFh
 0000192D  0F 85 000001DB    3		jne ??0085
 00001933		     3		??0087:
 00001933  83 05 00001D0F R  3		add bomb_x, 0
	   00
 0000193A  83 05 00001D13 R  3		add bomb_y, -50
	   CE
 00001941  8B 3D 00001D13 R  4		mov EDI, bomb_y
 00001947  BE 00000000	     4		mov ESI, 0
 0000194C		     4		??008B:
 0000194C  8B C7	     5		mov eax, EDI; EAX = y
 0000194E  BB 000003B6	     5		mov ebx, area_width
 00001953  F7 E3	     5		mul ebx; EAX = y*area_width
 00001955  03 05 00001D0F R  5		add EAX, bomb_x; EAX = y*area_width+x
 0000195B  C1 E0 02	     5		shl eax, 2; EAX = (y*area_width+x)*4
 0000195E  03 05 0000000A R  5		add EAX, area
 00001964  B9 00000032	     5		mov ECX, 50
 00001969		     5	??008C:
 00001969  C7 00 00F59B00    5		mov dword ptr [eax], 0F59B00h
 0000196F  83 C0 04	     5		add EAX,4
 00001972  E2 F5	     5	loop ??008C
 00001974  46		     4		inc ESI
 00001975  47		     4		inc EDI
 00001976  83 FE 32	     4		cmp ESI, 50
 00001979  75 D1	     4		jne ??008B
 0000197B  FF 05 00001D37 R  3		inc aux
 00001981  83 3D 00001D37 R  3		cmp aux, 4
	   04
 00001988  0F 85 FFFFFF4C    3		jne ??0086
 0000198E  E9 0000017B	     3		jmp ??0085
 00001993		     3		??0089:
 00001993  C7 05 00001D2B R  4		mov enemy_alive,0
	   00000000
 0000199D  C6 05 00001D0E R  4		mov bomb_check,0 
	   00
 000019A4  B8 000003B6	     4		mov eax, area_width
 000019A9  BB 000003B6	     4		mov ebx, area_height
 000019AE  F7 E3	     4		mul ebx
 000019B0  C1 E0 02	     4		shl eax, 2
 000019B3  50		     4		push eax
 000019B4  68 00A7A6A5	     4		push 0A7A6A5h ;coloram toata harta gri
 000019B9  FF 35 0000000A R  4		push area
 000019BF  E8 00000000 E     4		call memset
 000019C4  83 C4 0C	     4		add esp, 12
 000019C7  68 000001DB	     5		push area_height/2
 000019CC  68 000001C2	     5		push area_width/2-25
 000019D1  FF 35 0000000A R  5		push area
 000019D7  6A 44	     5		push 'D'
 000019D9  E8 FFFFE622	     5		call make_text
 000019DE  83 C4 10	     5		add esp, 16
 000019E1  68 000001DB	     5		push area_height/2
 000019E6  68 000001CC	     5		push area_width/2-15
 000019EB  FF 35 0000000A R  5		push area
 000019F1  6A 45	     5		push 'E'
 000019F3  E8 FFFFE608	     5		call make_text
 000019F8  83 C4 10	     5		add esp, 16
 000019FB  68 000001DB	     5		push area_height/2
 00001A00  68 000001D6	     5		push area_width/2-5
 00001A05  FF 35 0000000A R  5		push area
 00001A0B  6A 46	     5		push 'F'
 00001A0D  E8 FFFFE5EE	     5		call make_text
 00001A12  83 C4 10	     5		add esp, 16
 00001A15  68 000001DB	     5		push area_height/2
 00001A1A  68 000001E0	     5		push area_width/2+5
 00001A1F  FF 35 0000000A R  5		push area
 00001A25  6A 45	     5		push 'E'
 00001A27  E8 FFFFE5D4	     5		call make_text
 00001A2C  83 C4 10	     5		add esp, 16
 00001A2F  68 000001DB	     5		push area_height/2
 00001A34  68 000001EA	     5		push area_width/2+15
 00001A39  FF 35 0000000A R  5		push area
 00001A3F  6A 41	     5		push 'A'
 00001A41  E8 FFFFE5BA	     5		call make_text
 00001A46  83 C4 10	     5		add esp, 16
 00001A49  68 000001DB	     5		push area_height/2
 00001A4E  68 000001F4	     5		push area_width/2+25
 00001A53  FF 35 0000000A R  5		push area
 00001A59  6A 54	     5		push 'T'
 00001A5B  E8 FFFFE5A0	     5		call make_text
 00001A60  83 C4 10	     5		add esp, 16
 00001A63  C7 05 00001D33 R  4		mov game_over_check, 1
	   00000001
 00001A6D  E9 0000009C	     3		jmp ??0085
 00001A72		     3		??0088:
 00001A72  83 05 00001D0F R  3		add bomb_x, 0
	   00
 00001A79  83 05 00001D13 R  3		add bomb_y, -50
	   CE
 00001A80  8B 3D 00001D13 R  4		mov EDI, bomb_y
 00001A86  BE 00000000	     4		mov ESI, 0
 00001A8B		     4		??008D:
 00001A8B  8B C7	     5		mov eax, EDI; EAX = y
 00001A8D  BB 000003B6	     5		mov ebx, area_width
 00001A92  F7 E3	     5		mul ebx; EAX = y*area_width
 00001A94  03 05 00001D0F R  5		add EAX, bomb_x; EAX = y*area_width+x
 00001A9A  C1 E0 02	     5		shl eax, 2; EAX = (y*area_width+x)*4
 00001A9D  03 05 0000000A R  5		add EAX, area
 00001AA3  B9 00000032	     5		mov ECX, 50
 00001AA8		     5	??008E:
 00001AA8  C7 00 00FFFFFF    5		mov dword ptr [eax], 0FFFFFFh
 00001AAE  83 C0 04	     5		add EAX,4
 00001AB1  E2 F5	     5	loop ??008E
 00001AB3  46		     4		inc ESI
 00001AB4  47		     4		inc EDI
 00001AB5  83 FE 32	     4		cmp ESI, 50
 00001AB8  75 D1	     4		jne ??008D
 00001ABA  EB 52	     3		jmp ??0085
 00001ABC		     3		??008A:
 00001ABC  83 05 00001D0F R  3		add bomb_x, 0
	   00
 00001AC3  83 05 00001D13 R  3		add bomb_y, -50
	   CE
 00001ACA  8B 3D 00001D13 R  4		mov EDI, bomb_y
 00001AD0  BE 00000000	     4		mov ESI, 0
 00001AD5		     4		??008F:
 00001AD5  8B C7	     5		mov eax, EDI; EAX = y
 00001AD7  BB 000003B6	     5		mov ebx, area_width
 00001ADC  F7 E3	     5		mul ebx; EAX = y*area_width
 00001ADE  03 05 00001D0F R  5		add EAX, bomb_x; EAX = y*area_width+x
 00001AE4  C1 E0 02	     5		shl eax, 2; EAX = (y*area_width+x)*4
 00001AE7  03 05 0000000A R  5		add EAX, area
 00001AED  B9 00000032	     5		mov ECX, 50
 00001AF2		     5	??0090:
 00001AF2  C7 00 00FFFFFF    5		mov dword ptr [eax], 0FFFFFFh
 00001AF8  83 C0 04	     5		add EAX,4
 00001AFB  E2 F5	     5	loop ??0090
 00001AFD  46		     4		inc ESI
 00001AFE  47		     4		inc EDI
 00001AFF  83 FE 32	     4		cmp ESI, 50
 00001B02  75 D1	     4		jne ??008F
 00001B04  C7 05 00001D2B R  3		mov enemy_alive,0
	   00000000
 00001B0E		     3		??0085:
 00001B0E  8B 35 00001D3B R  3		mov ESI, aux1
 00001B14  89 35 00001D0F R  3		mov bomb_x, ESI
 00001B1A  8B 35 00001D3F R  3		mov ESI, aux2
 00001B20  89 35 00001D13 R  3		mov bomb_y,ESI
 00001B26  8B 35 00001D0F R  3		mov ESI, bomb_x
 00001B2C  89 35 00001D3B R  3		mov aux1, ESI
 00001B32  8B 35 00001D13 R  3		mov ESI, bomb_y
 00001B38  89 35 00001D3F R  3		mov aux2, ESI
 00001B3E  C7 05 00001D37 R  3		mov aux, 0
	   00000000
 00001B48		     3		??0092:
 00001B48  A1 00001D13 R     4		mov EAX, bomb_y; EAX = y
 00001B4D  83 C0 32	     4		add EAX, 50
 00001B50  BB 000003B6	     4		mov EBX, area_width
 00001B55  F7 E3	     4		mul EBX; EAX = y*area_width 
 00001B57  03 05 00001D0F R  4		add EAX, bomb_x; EAX = y*area_width+x
 00001B5D  83 C0 00	     4		add EAX, 0
 00001B60  C1 E0 02	     4		shl EAX, 2; EAX = (y*area_width+x)*4
 00001B63  03 05 0000000A R  4		add EAX, area
 00001B69  81 38 00FF69B4    3		cmp dword ptr [EAX], 0FF69B4h
 00001B6F  0F 84 000001B5    3		je ??0096
 00001B75  81 38 00FF0000    3		cmp dword ptr [EAX], 0FF0000h
 00001B7B  0F 84 00000080    3		je ??0095
 00001B81  81 38 00A0522D    3		cmp dword ptr [EAX], 0A0522Dh
 00001B87  0F 84 00000153    3		je ??0094
 00001B8D  81 38 00F59B00    3		cmp dword ptr [EAX], 0F59B00h
 00001B93  74 0C	     3		je ??0093
 00001B95  81 38 00FFFFFF    3		cmp dword ptr [EAX], 0FFFFFFh
 00001B9B  0F 85 000001DB    3		jne ??0091
 00001BA1		     3		??0093:
 00001BA1  83 05 00001D0F R  3		add bomb_x, 0
	   00
 00001BA8  83 05 00001D13 R  3		add bomb_y, 50
	   32
 00001BAF  8B 3D 00001D13 R  4		mov EDI, bomb_y
 00001BB5  BE 00000000	     4		mov ESI, 0
 00001BBA		     4		??0097:
 00001BBA  8B C7	     5		mov eax, EDI; EAX = y
 00001BBC  BB 000003B6	     5		mov ebx, area_width
 00001BC1  F7 E3	     5		mul ebx; EAX = y*area_width
 00001BC3  03 05 00001D0F R  5		add EAX, bomb_x; EAX = y*area_width+x
 00001BC9  C1 E0 02	     5		shl eax, 2; EAX = (y*area_width+x)*4
 00001BCC  03 05 0000000A R  5		add EAX, area
 00001BD2  B9 00000032	     5		mov ECX, 50
 00001BD7		     5	??0098:
 00001BD7  C7 00 00F59B00    5		mov dword ptr [eax], 0F59B00h
 00001BDD  83 C0 04	     5		add EAX,4
 00001BE0  E2 F5	     5	loop ??0098
 00001BE2  46		     4		inc ESI
 00001BE3  47		     4		inc EDI
 00001BE4  83 FE 32	     4		cmp ESI, 50
 00001BE7  75 D1	     4		jne ??0097
 00001BE9  FF 05 00001D37 R  3		inc aux
 00001BEF  83 3D 00001D37 R  3		cmp aux, 4
	   04
 00001BF6  0F 85 FFFFFF4C    3		jne ??0092
 00001BFC  E9 0000017B	     3		jmp ??0091
 00001C01		     3		??0095:
 00001C01  C7 05 00001D2B R  4		mov enemy_alive,0
	   00000000
 00001C0B  C6 05 00001D0E R  4		mov bomb_check,0 
	   00
 00001C12  B8 000003B6	     4		mov eax, area_width
 00001C17  BB 000003B6	     4		mov ebx, area_height
 00001C1C  F7 E3	     4		mul ebx
 00001C1E  C1 E0 02	     4		shl eax, 2
 00001C21  50		     4		push eax
 00001C22  68 00A7A6A5	     4		push 0A7A6A5h ;coloram toata harta gri
 00001C27  FF 35 0000000A R  4		push area
 00001C2D  E8 00000000 E     4		call memset
 00001C32  83 C4 0C	     4		add esp, 12
 00001C35  68 000001DB	     5		push area_height/2
 00001C3A  68 000001C2	     5		push area_width/2-25
 00001C3F  FF 35 0000000A R  5		push area
 00001C45  6A 44	     5		push 'D'
 00001C47  E8 FFFFE3B4	     5		call make_text
 00001C4C  83 C4 10	     5		add esp, 16
 00001C4F  68 000001DB	     5		push area_height/2
 00001C54  68 000001CC	     5		push area_width/2-15
 00001C59  FF 35 0000000A R  5		push area
 00001C5F  6A 45	     5		push 'E'
 00001C61  E8 FFFFE39A	     5		call make_text
 00001C66  83 C4 10	     5		add esp, 16
 00001C69  68 000001DB	     5		push area_height/2
 00001C6E  68 000001D6	     5		push area_width/2-5
 00001C73  FF 35 0000000A R  5		push area
 00001C79  6A 46	     5		push 'F'
 00001C7B  E8 FFFFE380	     5		call make_text
 00001C80  83 C4 10	     5		add esp, 16
 00001C83  68 000001DB	     5		push area_height/2
 00001C88  68 000001E0	     5		push area_width/2+5
 00001C8D  FF 35 0000000A R  5		push area
 00001C93  6A 45	     5		push 'E'
 00001C95  E8 FFFFE366	     5		call make_text
 00001C9A  83 C4 10	     5		add esp, 16
 00001C9D  68 000001DB	     5		push area_height/2
 00001CA2  68 000001EA	     5		push area_width/2+15
 00001CA7  FF 35 0000000A R  5		push area
 00001CAD  6A 41	     5		push 'A'
 00001CAF  E8 FFFFE34C	     5		call make_text
 00001CB4  83 C4 10	     5		add esp, 16
 00001CB7  68 000001DB	     5		push area_height/2
 00001CBC  68 000001F4	     5		push area_width/2+25
 00001CC1  FF 35 0000000A R  5		push area
 00001CC7  6A 54	     5		push 'T'
 00001CC9  E8 FFFFE332	     5		call make_text
 00001CCE  83 C4 10	     5		add esp, 16
 00001CD1  C7 05 00001D33 R  4		mov game_over_check, 1
	   00000001
 00001CDB  E9 0000009C	     3		jmp ??0091
 00001CE0		     3		??0094:
 00001CE0  83 05 00001D0F R  3		add bomb_x, 0
	   00
 00001CE7  83 05 00001D13 R  3		add bomb_y, 50
	   32
 00001CEE  8B 3D 00001D13 R  4		mov EDI, bomb_y
 00001CF4  BE 00000000	     4		mov ESI, 0
 00001CF9		     4		??0099:
 00001CF9  8B C7	     5		mov eax, EDI; EAX = y
 00001CFB  BB 000003B6	     5		mov ebx, area_width
 00001D00  F7 E3	     5		mul ebx; EAX = y*area_width
 00001D02  03 05 00001D0F R  5		add EAX, bomb_x; EAX = y*area_width+x
 00001D08  C1 E0 02	     5		shl eax, 2; EAX = (y*area_width+x)*4
 00001D0B  03 05 0000000A R  5		add EAX, area
 00001D11  B9 00000032	     5		mov ECX, 50
 00001D16		     5	??009A:
 00001D16  C7 00 00FFFFFF    5		mov dword ptr [eax], 0FFFFFFh
 00001D1C  83 C0 04	     5		add EAX,4
 00001D1F  E2 F5	     5	loop ??009A
 00001D21  46		     4		inc ESI
 00001D22  47		     4		inc EDI
 00001D23  83 FE 32	     4		cmp ESI, 50
 00001D26  75 D1	     4		jne ??0099
 00001D28  EB 52	     3		jmp ??0091
 00001D2A		     3		??0096:
 00001D2A  83 05 00001D0F R  3		add bomb_x, 0
	   00
 00001D31  83 05 00001D13 R  3		add bomb_y, 50
	   32
 00001D38  8B 3D 00001D13 R  4		mov EDI, bomb_y
 00001D3E  BE 00000000	     4		mov ESI, 0
 00001D43		     4		??009B:
 00001D43  8B C7	     5		mov eax, EDI; EAX = y
 00001D45  BB 000003B6	     5		mov ebx, area_width
 00001D4A  F7 E3	     5		mul ebx; EAX = y*area_width
 00001D4C  03 05 00001D0F R  5		add EAX, bomb_x; EAX = y*area_width+x
 00001D52  C1 E0 02	     5		shl eax, 2; EAX = (y*area_width+x)*4
 00001D55  03 05 0000000A R  5		add EAX, area
 00001D5B  B9 00000032	     5		mov ECX, 50
 00001D60		     5	??009C:
 00001D60  C7 00 00FFFFFF    5		mov dword ptr [eax], 0FFFFFFh
 00001D66  83 C0 04	     5		add EAX,4
 00001D69  E2 F5	     5	loop ??009C
 00001D6B  46		     4		inc ESI
 00001D6C  47		     4		inc EDI
 00001D6D  83 FE 32	     4		cmp ESI, 50
 00001D70  75 D1	     4		jne ??009B
 00001D72  C7 05 00001D2B R  3		mov enemy_alive,0
	   00000000
 00001D7C		     3		??0091:
 00001D7C  8B 35 00001D3B R  3		mov ESI, aux1
 00001D82  89 35 00001D0F R  3		mov bomb_x, ESI
 00001D88  8B 35 00001D3F R  3		mov ESI, aux2
 00001D8E  89 35 00001D13 R  3		mov bomb_y,ESI
 00001D94  A1 00001D06 R     2		mov EAX, bomberman_x
 00001D99  39 05 00001D0F R  2		cmp bomb_x, EAX
 00001D9F  0F 85 000000ED    2		jne ??006B
 00001DA5  A1 00001D0A R     2		mov EAX, bomberman_y
 00001DAA  39 05 00001D13 R  2		cmp bomb_y, EAX
 00001DB0  0F 85 000000DC    2		jne ??006B
 00001DB6  C7 05 00001D2B R  3		mov enemy_alive,0
	   00000000
 00001DC0  C6 05 00001D0E R  3		mov bomb_check,0 
	   00
 00001DC7  B8 000003B6	     3		mov eax, area_width
 00001DCC  BB 000003B6	     3		mov ebx, area_height
 00001DD1  F7 E3	     3		mul ebx
 00001DD3  C1 E0 02	     3		shl eax, 2
 00001DD6  50		     3		push eax
 00001DD7  68 00A7A6A5	     3		push 0A7A6A5h ;coloram toata harta gri
 00001DDC  FF 35 0000000A R  3		push area
 00001DE2  E8 00000000 E     3		call memset
 00001DE7  83 C4 0C	     3		add esp, 12
 00001DEA  68 000001DB	     4		push area_height/2
 00001DEF  68 000001C2	     4		push area_width/2-25
 00001DF4  FF 35 0000000A R  4		push area
 00001DFA  6A 44	     4		push 'D'
 00001DFC  E8 FFFFE1FF	     4		call make_text
 00001E01  83 C4 10	     4		add esp, 16
 00001E04  68 000001DB	     4		push area_height/2
 00001E09  68 000001CC	     4		push area_width/2-15
 00001E0E  FF 35 0000000A R  4		push area
 00001E14  6A 45	     4		push 'E'
 00001E16  E8 FFFFE1E5	     4		call make_text
 00001E1B  83 C4 10	     4		add esp, 16
 00001E1E  68 000001DB	     4		push area_height/2
 00001E23  68 000001D6	     4		push area_width/2-5
 00001E28  FF 35 0000000A R  4		push area
 00001E2E  6A 46	     4		push 'F'
 00001E30  E8 FFFFE1CB	     4		call make_text
 00001E35  83 C4 10	     4		add esp, 16
 00001E38  68 000001DB	     4		push area_height/2
 00001E3D  68 000001E0	     4		push area_width/2+5
 00001E42  FF 35 0000000A R  4		push area
 00001E48  6A 45	     4		push 'E'
 00001E4A  E8 FFFFE1B1	     4		call make_text
 00001E4F  83 C4 10	     4		add esp, 16
 00001E52  68 000001DB	     4		push area_height/2
 00001E57  68 000001EA	     4		push area_width/2+15
 00001E5C  FF 35 0000000A R  4		push area
 00001E62  6A 41	     4		push 'A'
 00001E64  E8 FFFFE197	     4		call make_text
 00001E69  83 C4 10	     4		add esp, 16
 00001E6C  68 000001DB	     4		push area_height/2
 00001E71  68 000001F4	     4		push area_width/2+25
 00001E76  FF 35 0000000A R  4		push area
 00001E7C  6A 54	     4		push 'T'
 00001E7E  E8 FFFFE17D	     4		call make_text
 00001E83  83 C4 10	     4		add esp, 16
 00001E86  C7 05 00001D33 R  3		mov game_over_check, 1
	   00000001
 00001E90  EB 63	     2		jmp ??006C
 00001E92		     2		??006B:
 00001E92  A1 00001D13 R     3		mov EAX, bomb_y; EAX = y
 00001E97  83 C0 00	     3		add EAX, 0
 00001E9A  BB 000003B6	     3		mov EBX, area_width
 00001E9F  F7 E3	     3		mul EBX; EAX = y*area_width 
 00001EA1  03 05 00001D0F R  3		add EAX, bomb_x; EAX = y*area_width+x
 00001EA7  83 C0 00	     3		add EAX, 0
 00001EAA  C1 E0 02	     3		shl EAX, 2; EAX = (y*area_width+x)*4
 00001EAD  03 05 0000000A R  3		add EAX, area
 00001EB3  81 38 00FFFFFF    2		cmp dword ptr [eax], 0FFFFFFh
 00001EB9  75 3A	     2		jne ??006C
 00001EBB  8B 3D 00001D13 R  3		mov EDI, bomb_y
 00001EC1  BE 00000000	     3		mov ESI, 0
 00001EC6		     3		??009D:
 00001EC6  8B C7	     4		mov eax, EDI; EAX = y
 00001EC8  BB 000003B6	     4		mov ebx, area_width
 00001ECD  F7 E3	     4		mul ebx; EAX = y*area_width
 00001ECF  03 05 00001D0F R  4		add EAX, bomb_x; EAX = y*area_width+x
 00001ED5  C1 E0 02	     4		shl eax, 2; EAX = (y*area_width+x)*4
 00001ED8  03 05 0000000A R  4		add EAX, area
 00001EDE  B9 00000032	     4		mov ECX, 50
 00001EE3		     4	??009E:
 00001EE3  C7 00 00F59B00    4		mov dword ptr [eax], 0F59B00h
 00001EE9  83 C0 04	     4		add EAX,4
 00001EEC  E2 F5	     4	loop ??009E
 00001EEE  46		     3		inc ESI
 00001EEF  47		     3		inc EDI
 00001EF0  83 FE 32	     3		cmp ESI, 50
 00001EF3  75 D1	     3		jne ??009D
 00001EF5		     2		??006C:
 00001EF5		     1		explosion_timer:
 00001EF5  FF 05 00000016 R  1		inc counterExplosion
 00001EFB  83 3D 00000016 R  1		cmp counterExplosion, 5
	   05
 00001F02  0F 85 00000B76    1		jne no_bomb
 00001F08  8B 35 00001D0F R  3		mov ESI, bomb_x
 00001F0E  89 35 00001D3B R  3		mov aux1, ESI
 00001F14  8B 35 00001D13 R  3		mov ESI, bomb_y
 00001F1A  89 35 00001D3F R  3		mov aux2, ESI
 00001F20  C7 05 00001D37 R  3		mov aux, 0
	   00000000
 00001F2A		     3		??00A2:
 00001F2A  A1 00001D13 R     4		mov EAX, bomb_y; EAX = y
 00001F2F  83 C0 00	     4		add EAX, 0
 00001F32  BB 000003B6	     4		mov EBX, area_width
 00001F37  F7 E3	     4		mul EBX; EAX = y*area_width 
 00001F39  03 05 00001D0F R  4		add EAX, bomb_x; EAX = y*area_width+x
 00001F3F  83 C0 32	     4		add EAX, 50
 00001F42  C1 E0 02	     4		shl EAX, 2; EAX = (y*area_width+x)*4
 00001F45  03 05 0000000A R  4		add EAX, area
 00001F4B  81 38 00FF69B4    3		cmp dword ptr [EAX], 0FF69B4h
 00001F51  0F 84 000001B5    3		je ??00A6
 00001F57  81 38 00FF0000    3		cmp dword ptr [EAX], 0FF0000h
 00001F5D  0F 84 00000080    3		je ??00A5
 00001F63  81 38 00A0522D    3		cmp dword ptr [EAX], 0A0522Dh
 00001F69  0F 84 00000153    3		je ??00A4
 00001F6F  81 38 00F59B00    3		cmp dword ptr [EAX], 0F59B00h
 00001F75  74 0C	     3		je ??00A3
 00001F77  81 38 00FFFFFF    3		cmp dword ptr [EAX], 0FFFFFFh
 00001F7D  0F 85 000001DB    3		jne ??00A1
 00001F83		     3		??00A3:
 00001F83  83 05 00001D0F R  3		add bomb_x, 50
	   32
 00001F8A  83 05 00001D13 R  3		add bomb_y, 0
	   00
 00001F91  8B 3D 00001D13 R  4		mov EDI, bomb_y
 00001F97  BE 00000000	     4		mov ESI, 0
 00001F9C		     4		??00A7:
 00001F9C  8B C7	     5		mov eax, EDI; EAX = y
 00001F9E  BB 000003B6	     5		mov ebx, area_width
 00001FA3  F7 E3	     5		mul ebx; EAX = y*area_width
 00001FA5  03 05 00001D0F R  5		add EAX, bomb_x; EAX = y*area_width+x
 00001FAB  C1 E0 02	     5		shl eax, 2; EAX = (y*area_width+x)*4
 00001FAE  03 05 0000000A R  5		add EAX, area
 00001FB4  B9 00000032	     5		mov ECX, 50
 00001FB9		     5	??00A8:
 00001FB9  C7 00 00FFFFFF    5		mov dword ptr [eax], 0FFFFFFh
 00001FBF  83 C0 04	     5		add EAX,4
 00001FC2  E2 F5	     5	loop ??00A8
 00001FC4  46		     4		inc ESI
 00001FC5  47		     4		inc EDI
 00001FC6  83 FE 32	     4		cmp ESI, 50
 00001FC9  75 D1	     4		jne ??00A7
 00001FCB  FF 05 00001D37 R  3		inc aux
 00001FD1  83 3D 00001D37 R  3		cmp aux, 4
	   04
 00001FD8  0F 85 FFFFFF4C    3		jne ??00A2
 00001FDE  E9 0000017B	     3		jmp ??00A1
 00001FE3		     3		??00A5:
 00001FE3  C7 05 00001D2B R  4		mov enemy_alive,0
	   00000000
 00001FED  C6 05 00001D0E R  4		mov bomb_check,0 
	   00
 00001FF4  B8 000003B6	     4		mov eax, area_width
 00001FF9  BB 000003B6	     4		mov ebx, area_height
 00001FFE  F7 E3	     4		mul ebx
 00002000  C1 E0 02	     4		shl eax, 2
 00002003  50		     4		push eax
 00002004  68 00A7A6A5	     4		push 0A7A6A5h ;coloram toata harta gri
 00002009  FF 35 0000000A R  4		push area
 0000200F  E8 00000000 E     4		call memset
 00002014  83 C4 0C	     4		add esp, 12
 00002017  68 000001DB	     5		push area_height/2
 0000201C  68 000001C2	     5		push area_width/2-25
 00002021  FF 35 0000000A R  5		push area
 00002027  6A 44	     5		push 'D'
 00002029  E8 FFFFDFD2	     5		call make_text
 0000202E  83 C4 10	     5		add esp, 16
 00002031  68 000001DB	     5		push area_height/2
 00002036  68 000001CC	     5		push area_width/2-15
 0000203B  FF 35 0000000A R  5		push area
 00002041  6A 45	     5		push 'E'
 00002043  E8 FFFFDFB8	     5		call make_text
 00002048  83 C4 10	     5		add esp, 16
 0000204B  68 000001DB	     5		push area_height/2
 00002050  68 000001D6	     5		push area_width/2-5
 00002055  FF 35 0000000A R  5		push area
 0000205B  6A 46	     5		push 'F'
 0000205D  E8 FFFFDF9E	     5		call make_text
 00002062  83 C4 10	     5		add esp, 16
 00002065  68 000001DB	     5		push area_height/2
 0000206A  68 000001E0	     5		push area_width/2+5
 0000206F  FF 35 0000000A R  5		push area
 00002075  6A 45	     5		push 'E'
 00002077  E8 FFFFDF84	     5		call make_text
 0000207C  83 C4 10	     5		add esp, 16
 0000207F  68 000001DB	     5		push area_height/2
 00002084  68 000001EA	     5		push area_width/2+15
 00002089  FF 35 0000000A R  5		push area
 0000208F  6A 41	     5		push 'A'
 00002091  E8 FFFFDF6A	     5		call make_text
 00002096  83 C4 10	     5		add esp, 16
 00002099  68 000001DB	     5		push area_height/2
 0000209E  68 000001F4	     5		push area_width/2+25
 000020A3  FF 35 0000000A R  5		push area
 000020A9  6A 54	     5		push 'T'
 000020AB  E8 FFFFDF50	     5		call make_text
 000020B0  83 C4 10	     5		add esp, 16
 000020B3  C7 05 00001D33 R  4		mov game_over_check, 1
	   00000001
 000020BD  E9 0000009C	     3		jmp ??00A1
 000020C2		     3		??00A4:
 000020C2  83 05 00001D0F R  3		add bomb_x, 50
	   32
 000020C9  83 05 00001D13 R  3		add bomb_y, 0
	   00
 000020D0  8B 3D 00001D13 R  4		mov EDI, bomb_y
 000020D6  BE 00000000	     4		mov ESI, 0
 000020DB		     4		??00A9:
 000020DB  8B C7	     5		mov eax, EDI; EAX = y
 000020DD  BB 000003B6	     5		mov ebx, area_width
 000020E2  F7 E3	     5		mul ebx; EAX = y*area_width
 000020E4  03 05 00001D0F R  5		add EAX, bomb_x; EAX = y*area_width+x
 000020EA  C1 E0 02	     5		shl eax, 2; EAX = (y*area_width+x)*4
 000020ED  03 05 0000000A R  5		add EAX, area
 000020F3  B9 00000032	     5		mov ECX, 50
 000020F8		     5	??00AA:
 000020F8  C7 00 00FFFFFF    5		mov dword ptr [eax], 0FFFFFFh
 000020FE  83 C0 04	     5		add EAX,4
 00002101  E2 F5	     5	loop ??00AA
 00002103  46		     4		inc ESI
 00002104  47		     4		inc EDI
 00002105  83 FE 32	     4		cmp ESI, 50
 00002108  75 D1	     4		jne ??00A9
 0000210A  EB 52	     3		jmp ??00A1
 0000210C		     3		??00A6:
 0000210C  83 05 00001D0F R  3		add bomb_x, 50
	   32
 00002113  83 05 00001D13 R  3		add bomb_y, 0
	   00
 0000211A  8B 3D 00001D13 R  4		mov EDI, bomb_y
 00002120  BE 00000000	     4		mov ESI, 0
 00002125		     4		??00AB:
 00002125  8B C7	     5		mov eax, EDI; EAX = y
 00002127  BB 000003B6	     5		mov ebx, area_width
 0000212C  F7 E3	     5		mul ebx; EAX = y*area_width
 0000212E  03 05 00001D0F R  5		add EAX, bomb_x; EAX = y*area_width+x
 00002134  C1 E0 02	     5		shl eax, 2; EAX = (y*area_width+x)*4
 00002137  03 05 0000000A R  5		add EAX, area
 0000213D  B9 00000032	     5		mov ECX, 50
 00002142		     5	??00AC:
 00002142  C7 00 00FFFFFF    5		mov dword ptr [eax], 0FFFFFFh
 00002148  83 C0 04	     5		add EAX,4
 0000214B  E2 F5	     5	loop ??00AC
 0000214D  46		     4		inc ESI
 0000214E  47		     4		inc EDI
 0000214F  83 FE 32	     4		cmp ESI, 50
 00002152  75 D1	     4		jne ??00AB
 00002154  C7 05 00001D2B R  3		mov enemy_alive,0
	   00000000
 0000215E		     3		??00A1:
 0000215E  8B 35 00001D3B R  3		mov ESI, aux1
 00002164  89 35 00001D0F R  3		mov bomb_x, ESI
 0000216A  8B 35 00001D3F R  3		mov ESI, aux2
 00002170  89 35 00001D13 R  3		mov bomb_y,ESI
 00002176  8B 35 00001D0F R  3		mov ESI, bomb_x
 0000217C  89 35 00001D3B R  3		mov aux1, ESI
 00002182  8B 35 00001D13 R  3		mov ESI, bomb_y
 00002188  89 35 00001D3F R  3		mov aux2, ESI
 0000218E  C7 05 00001D37 R  3		mov aux, 0
	   00000000
 00002198		     3		??00AE:
 00002198  A1 00001D13 R     4		mov EAX, bomb_y; EAX = y
 0000219D  83 C0 00	     4		add EAX, 0
 000021A0  BB 000003B6	     4		mov EBX, area_width
 000021A5  F7 E3	     4		mul EBX; EAX = y*area_width 
 000021A7  03 05 00001D0F R  4		add EAX, bomb_x; EAX = y*area_width+x
 000021AD  83 C0 CE	     4		add EAX, -50
 000021B0  C1 E0 02	     4		shl EAX, 2; EAX = (y*area_width+x)*4
 000021B3  03 05 0000000A R  4		add EAX, area
 000021B9  81 38 00FF69B4    3		cmp dword ptr [EAX], 0FF69B4h
 000021BF  0F 84 000001B5    3		je ??00B2
 000021C5  81 38 00FF0000    3		cmp dword ptr [EAX], 0FF0000h
 000021CB  0F 84 00000080    3		je ??00B1
 000021D1  81 38 00A0522D    3		cmp dword ptr [EAX], 0A0522Dh
 000021D7  0F 84 00000153    3		je ??00B0
 000021DD  81 38 00F59B00    3		cmp dword ptr [EAX], 0F59B00h
 000021E3  74 0C	     3		je ??00AF
 000021E5  81 38 00FFFFFF    3		cmp dword ptr [EAX], 0FFFFFFh
 000021EB  0F 85 000001DB    3		jne ??00AD
 000021F1		     3		??00AF:
 000021F1  83 05 00001D0F R  3		add bomb_x, -50
	   CE
 000021F8  83 05 00001D13 R  3		add bomb_y, 0
	   00
 000021FF  8B 3D 00001D13 R  4		mov EDI, bomb_y
 00002205  BE 00000000	     4		mov ESI, 0
 0000220A		     4		??00B3:
 0000220A  8B C7	     5		mov eax, EDI; EAX = y
 0000220C  BB 000003B6	     5		mov ebx, area_width
 00002211  F7 E3	     5		mul ebx; EAX = y*area_width
 00002213  03 05 00001D0F R  5		add EAX, bomb_x; EAX = y*area_width+x
 00002219  C1 E0 02	     5		shl eax, 2; EAX = (y*area_width+x)*4
 0000221C  03 05 0000000A R  5		add EAX, area
 00002222  B9 00000032	     5		mov ECX, 50
 00002227		     5	??00B4:
 00002227  C7 00 00FFFFFF    5		mov dword ptr [eax], 0FFFFFFh
 0000222D  83 C0 04	     5		add EAX,4
 00002230  E2 F5	     5	loop ??00B4
 00002232  46		     4		inc ESI
 00002233  47		     4		inc EDI
 00002234  83 FE 32	     4		cmp ESI, 50
 00002237  75 D1	     4		jne ??00B3
 00002239  FF 05 00001D37 R  3		inc aux
 0000223F  83 3D 00001D37 R  3		cmp aux, 4
	   04
 00002246  0F 85 FFFFFF4C    3		jne ??00AE
 0000224C  E9 0000017B	     3		jmp ??00AD
 00002251		     3		??00B1:
 00002251  C7 05 00001D2B R  4		mov enemy_alive,0
	   00000000
 0000225B  C6 05 00001D0E R  4		mov bomb_check,0 
	   00
 00002262  B8 000003B6	     4		mov eax, area_width
 00002267  BB 000003B6	     4		mov ebx, area_height
 0000226C  F7 E3	     4		mul ebx
 0000226E  C1 E0 02	     4		shl eax, 2
 00002271  50		     4		push eax
 00002272  68 00A7A6A5	     4		push 0A7A6A5h ;coloram toata harta gri
 00002277  FF 35 0000000A R  4		push area
 0000227D  E8 00000000 E     4		call memset
 00002282  83 C4 0C	     4		add esp, 12
 00002285  68 000001DB	     5		push area_height/2
 0000228A  68 000001C2	     5		push area_width/2-25
 0000228F  FF 35 0000000A R  5		push area
 00002295  6A 44	     5		push 'D'
 00002297  E8 FFFFDD64	     5		call make_text
 0000229C  83 C4 10	     5		add esp, 16
 0000229F  68 000001DB	     5		push area_height/2
 000022A4  68 000001CC	     5		push area_width/2-15
 000022A9  FF 35 0000000A R  5		push area
 000022AF  6A 45	     5		push 'E'
 000022B1  E8 FFFFDD4A	     5		call make_text
 000022B6  83 C4 10	     5		add esp, 16
 000022B9  68 000001DB	     5		push area_height/2
 000022BE  68 000001D6	     5		push area_width/2-5
 000022C3  FF 35 0000000A R  5		push area
 000022C9  6A 46	     5		push 'F'
 000022CB  E8 FFFFDD30	     5		call make_text
 000022D0  83 C4 10	     5		add esp, 16
 000022D3  68 000001DB	     5		push area_height/2
 000022D8  68 000001E0	     5		push area_width/2+5
 000022DD  FF 35 0000000A R  5		push area
 000022E3  6A 45	     5		push 'E'
 000022E5  E8 FFFFDD16	     5		call make_text
 000022EA  83 C4 10	     5		add esp, 16
 000022ED  68 000001DB	     5		push area_height/2
 000022F2  68 000001EA	     5		push area_width/2+15
 000022F7  FF 35 0000000A R  5		push area
 000022FD  6A 41	     5		push 'A'
 000022FF  E8 FFFFDCFC	     5		call make_text
 00002304  83 C4 10	     5		add esp, 16
 00002307  68 000001DB	     5		push area_height/2
 0000230C  68 000001F4	     5		push area_width/2+25
 00002311  FF 35 0000000A R  5		push area
 00002317  6A 54	     5		push 'T'
 00002319  E8 FFFFDCE2	     5		call make_text
 0000231E  83 C4 10	     5		add esp, 16
 00002321  C7 05 00001D33 R  4		mov game_over_check, 1
	   00000001
 0000232B  E9 0000009C	     3		jmp ??00AD
 00002330		     3		??00B0:
 00002330  83 05 00001D0F R  3		add bomb_x, -50
	   CE
 00002337  83 05 00001D13 R  3		add bomb_y, 0
	   00
 0000233E  8B 3D 00001D13 R  4		mov EDI, bomb_y
 00002344  BE 00000000	     4		mov ESI, 0
 00002349		     4		??00B5:
 00002349  8B C7	     5		mov eax, EDI; EAX = y
 0000234B  BB 000003B6	     5		mov ebx, area_width
 00002350  F7 E3	     5		mul ebx; EAX = y*area_width
 00002352  03 05 00001D0F R  5		add EAX, bomb_x; EAX = y*area_width+x
 00002358  C1 E0 02	     5		shl eax, 2; EAX = (y*area_width+x)*4
 0000235B  03 05 0000000A R  5		add EAX, area
 00002361  B9 00000032	     5		mov ECX, 50
 00002366		     5	??00B6:
 00002366  C7 00 00FFFFFF    5		mov dword ptr [eax], 0FFFFFFh
 0000236C  83 C0 04	     5		add EAX,4
 0000236F  E2 F5	     5	loop ??00B6
 00002371  46		     4		inc ESI
 00002372  47		     4		inc EDI
 00002373  83 FE 32	     4		cmp ESI, 50
 00002376  75 D1	     4		jne ??00B5
 00002378  EB 52	     3		jmp ??00AD
 0000237A		     3		??00B2:
 0000237A  83 05 00001D0F R  3		add bomb_x, -50
	   CE
 00002381  83 05 00001D13 R  3		add bomb_y, 0
	   00
 00002388  8B 3D 00001D13 R  4		mov EDI, bomb_y
 0000238E  BE 00000000	     4		mov ESI, 0
 00002393		     4		??00B7:
 00002393  8B C7	     5		mov eax, EDI; EAX = y
 00002395  BB 000003B6	     5		mov ebx, area_width
 0000239A  F7 E3	     5		mul ebx; EAX = y*area_width
 0000239C  03 05 00001D0F R  5		add EAX, bomb_x; EAX = y*area_width+x
 000023A2  C1 E0 02	     5		shl eax, 2; EAX = (y*area_width+x)*4
 000023A5  03 05 0000000A R  5		add EAX, area
 000023AB  B9 00000032	     5		mov ECX, 50
 000023B0		     5	??00B8:
 000023B0  C7 00 00FFFFFF    5		mov dword ptr [eax], 0FFFFFFh
 000023B6  83 C0 04	     5		add EAX,4
 000023B9  E2 F5	     5	loop ??00B8
 000023BB  46		     4		inc ESI
 000023BC  47		     4		inc EDI
 000023BD  83 FE 32	     4		cmp ESI, 50
 000023C0  75 D1	     4		jne ??00B7
 000023C2  C7 05 00001D2B R  3		mov enemy_alive,0
	   00000000
 000023CC		     3		??00AD:
 000023CC  8B 35 00001D3B R  3		mov ESI, aux1
 000023D2  89 35 00001D0F R  3		mov bomb_x, ESI
 000023D8  8B 35 00001D3F R  3		mov ESI, aux2
 000023DE  89 35 00001D13 R  3		mov bomb_y,ESI
 000023E4  8B 35 00001D0F R  3		mov ESI, bomb_x
 000023EA  89 35 00001D3B R  3		mov aux1, ESI
 000023F0  8B 35 00001D13 R  3		mov ESI, bomb_y
 000023F6  89 35 00001D3F R  3		mov aux2, ESI
 000023FC  C7 05 00001D37 R  3		mov aux, 0
	   00000000
 00002406		     3		??00BA:
 00002406  A1 00001D13 R     4		mov EAX, bomb_y; EAX = y
 0000240B  83 C0 CE	     4		add EAX, -50
 0000240E  BB 000003B6	     4		mov EBX, area_width
 00002413  F7 E3	     4		mul EBX; EAX = y*area_width 
 00002415  03 05 00001D0F R  4		add EAX, bomb_x; EAX = y*area_width+x
 0000241B  83 C0 00	     4		add EAX, 0
 0000241E  C1 E0 02	     4		shl EAX, 2; EAX = (y*area_width+x)*4
 00002421  03 05 0000000A R  4		add EAX, area
 00002427  81 38 00FF69B4    3		cmp dword ptr [EAX], 0FF69B4h
 0000242D  0F 84 000001B5    3		je ??00BE
 00002433  81 38 00FF0000    3		cmp dword ptr [EAX], 0FF0000h
 00002439  0F 84 00000080    3		je ??00BD
 0000243F  81 38 00A0522D    3		cmp dword ptr [EAX], 0A0522Dh
 00002445  0F 84 00000153    3		je ??00BC
 0000244B  81 38 00F59B00    3		cmp dword ptr [EAX], 0F59B00h
 00002451  74 0C	     3		je ??00BB
 00002453  81 38 00FFFFFF    3		cmp dword ptr [EAX], 0FFFFFFh
 00002459  0F 85 000001DB    3		jne ??00B9
 0000245F		     3		??00BB:
 0000245F  83 05 00001D0F R  3		add bomb_x, 0
	   00
 00002466  83 05 00001D13 R  3		add bomb_y, -50
	   CE
 0000246D  8B 3D 00001D13 R  4		mov EDI, bomb_y
 00002473  BE 00000000	     4		mov ESI, 0
 00002478		     4		??00BF:
 00002478  8B C7	     5		mov eax, EDI; EAX = y
 0000247A  BB 000003B6	     5		mov ebx, area_width
 0000247F  F7 E3	     5		mul ebx; EAX = y*area_width
 00002481  03 05 00001D0F R  5		add EAX, bomb_x; EAX = y*area_width+x
 00002487  C1 E0 02	     5		shl eax, 2; EAX = (y*area_width+x)*4
 0000248A  03 05 0000000A R  5		add EAX, area
 00002490  B9 00000032	     5		mov ECX, 50
 00002495		     5	??00C0:
 00002495  C7 00 00FFFFFF    5		mov dword ptr [eax], 0FFFFFFh
 0000249B  83 C0 04	     5		add EAX,4
 0000249E  E2 F5	     5	loop ??00C0
 000024A0  46		     4		inc ESI
 000024A1  47		     4		inc EDI
 000024A2  83 FE 32	     4		cmp ESI, 50
 000024A5  75 D1	     4		jne ??00BF
 000024A7  FF 05 00001D37 R  3		inc aux
 000024AD  83 3D 00001D37 R  3		cmp aux, 4
	   04
 000024B4  0F 85 FFFFFF4C    3		jne ??00BA
 000024BA  E9 0000017B	     3		jmp ??00B9
 000024BF		     3		??00BD:
 000024BF  C7 05 00001D2B R  4		mov enemy_alive,0
	   00000000
 000024C9  C6 05 00001D0E R  4		mov bomb_check,0 
	   00
 000024D0  B8 000003B6	     4		mov eax, area_width
 000024D5  BB 000003B6	     4		mov ebx, area_height
 000024DA  F7 E3	     4		mul ebx
 000024DC  C1 E0 02	     4		shl eax, 2
 000024DF  50		     4		push eax
 000024E0  68 00A7A6A5	     4		push 0A7A6A5h ;coloram toata harta gri
 000024E5  FF 35 0000000A R  4		push area
 000024EB  E8 00000000 E     4		call memset
 000024F0  83 C4 0C	     4		add esp, 12
 000024F3  68 000001DB	     5		push area_height/2
 000024F8  68 000001C2	     5		push area_width/2-25
 000024FD  FF 35 0000000A R  5		push area
 00002503  6A 44	     5		push 'D'
 00002505  E8 FFFFDAF6	     5		call make_text
 0000250A  83 C4 10	     5		add esp, 16
 0000250D  68 000001DB	     5		push area_height/2
 00002512  68 000001CC	     5		push area_width/2-15
 00002517  FF 35 0000000A R  5		push area
 0000251D  6A 45	     5		push 'E'
 0000251F  E8 FFFFDADC	     5		call make_text
 00002524  83 C4 10	     5		add esp, 16
 00002527  68 000001DB	     5		push area_height/2
 0000252C  68 000001D6	     5		push area_width/2-5
 00002531  FF 35 0000000A R  5		push area
 00002537  6A 46	     5		push 'F'
 00002539  E8 FFFFDAC2	     5		call make_text
 0000253E  83 C4 10	     5		add esp, 16
 00002541  68 000001DB	     5		push area_height/2
 00002546  68 000001E0	     5		push area_width/2+5
 0000254B  FF 35 0000000A R  5		push area
 00002551  6A 45	     5		push 'E'
 00002553  E8 FFFFDAA8	     5		call make_text
 00002558  83 C4 10	     5		add esp, 16
 0000255B  68 000001DB	     5		push area_height/2
 00002560  68 000001EA	     5		push area_width/2+15
 00002565  FF 35 0000000A R  5		push area
 0000256B  6A 41	     5		push 'A'
 0000256D  E8 FFFFDA8E	     5		call make_text
 00002572  83 C4 10	     5		add esp, 16
 00002575  68 000001DB	     5		push area_height/2
 0000257A  68 000001F4	     5		push area_width/2+25
 0000257F  FF 35 0000000A R  5		push area
 00002585  6A 54	     5		push 'T'
 00002587  E8 FFFFDA74	     5		call make_text
 0000258C  83 C4 10	     5		add esp, 16
 0000258F  C7 05 00001D33 R  4		mov game_over_check, 1
	   00000001
 00002599  E9 0000009C	     3		jmp ??00B9
 0000259E		     3		??00BC:
 0000259E  83 05 00001D0F R  3		add bomb_x, 0
	   00
 000025A5  83 05 00001D13 R  3		add bomb_y, -50
	   CE
 000025AC  8B 3D 00001D13 R  4		mov EDI, bomb_y
 000025B2  BE 00000000	     4		mov ESI, 0
 000025B7		     4		??00C1:
 000025B7  8B C7	     5		mov eax, EDI; EAX = y
 000025B9  BB 000003B6	     5		mov ebx, area_width
 000025BE  F7 E3	     5		mul ebx; EAX = y*area_width
 000025C0  03 05 00001D0F R  5		add EAX, bomb_x; EAX = y*area_width+x
 000025C6  C1 E0 02	     5		shl eax, 2; EAX = (y*area_width+x)*4
 000025C9  03 05 0000000A R  5		add EAX, area
 000025CF  B9 00000032	     5		mov ECX, 50
 000025D4		     5	??00C2:
 000025D4  C7 00 00FFFFFF    5		mov dword ptr [eax], 0FFFFFFh
 000025DA  83 C0 04	     5		add EAX,4
 000025DD  E2 F5	     5	loop ??00C2
 000025DF  46		     4		inc ESI
 000025E0  47		     4		inc EDI
 000025E1  83 FE 32	     4		cmp ESI, 50
 000025E4  75 D1	     4		jne ??00C1
 000025E6  EB 52	     3		jmp ??00B9
 000025E8		     3		??00BE:
 000025E8  83 05 00001D0F R  3		add bomb_x, 0
	   00
 000025EF  83 05 00001D13 R  3		add bomb_y, -50
	   CE
 000025F6  8B 3D 00001D13 R  4		mov EDI, bomb_y
 000025FC  BE 00000000	     4		mov ESI, 0
 00002601		     4		??00C3:
 00002601  8B C7	     5		mov eax, EDI; EAX = y
 00002603  BB 000003B6	     5		mov ebx, area_width
 00002608  F7 E3	     5		mul ebx; EAX = y*area_width
 0000260A  03 05 00001D0F R  5		add EAX, bomb_x; EAX = y*area_width+x
 00002610  C1 E0 02	     5		shl eax, 2; EAX = (y*area_width+x)*4
 00002613  03 05 0000000A R  5		add EAX, area
 00002619  B9 00000032	     5		mov ECX, 50
 0000261E		     5	??00C4:
 0000261E  C7 00 00FFFFFF    5		mov dword ptr [eax], 0FFFFFFh
 00002624  83 C0 04	     5		add EAX,4
 00002627  E2 F5	     5	loop ??00C4
 00002629  46		     4		inc ESI
 0000262A  47		     4		inc EDI
 0000262B  83 FE 32	     4		cmp ESI, 50
 0000262E  75 D1	     4		jne ??00C3
 00002630  C7 05 00001D2B R  3		mov enemy_alive,0
	   00000000
 0000263A		     3		??00B9:
 0000263A  8B 35 00001D3B R  3		mov ESI, aux1
 00002640  89 35 00001D0F R  3		mov bomb_x, ESI
 00002646  8B 35 00001D3F R  3		mov ESI, aux2
 0000264C  89 35 00001D13 R  3		mov bomb_y,ESI
 00002652  8B 35 00001D0F R  3		mov ESI, bomb_x
 00002658  89 35 00001D3B R  3		mov aux1, ESI
 0000265E  8B 35 00001D13 R  3		mov ESI, bomb_y
 00002664  89 35 00001D3F R  3		mov aux2, ESI
 0000266A  C7 05 00001D37 R  3		mov aux, 0
	   00000000
 00002674		     3		??00C6:
 00002674  A1 00001D13 R     4		mov EAX, bomb_y; EAX = y
 00002679  83 C0 32	     4		add EAX, 50
 0000267C  BB 000003B6	     4		mov EBX, area_width
 00002681  F7 E3	     4		mul EBX; EAX = y*area_width 
 00002683  03 05 00001D0F R  4		add EAX, bomb_x; EAX = y*area_width+x
 00002689  83 C0 00	     4		add EAX, 0
 0000268C  C1 E0 02	     4		shl EAX, 2; EAX = (y*area_width+x)*4
 0000268F  03 05 0000000A R  4		add EAX, area
 00002695  81 38 00FF69B4    3		cmp dword ptr [EAX], 0FF69B4h
 0000269B  0F 84 000001B5    3		je ??00CA
 000026A1  81 38 00FF0000    3		cmp dword ptr [EAX], 0FF0000h
 000026A7  0F 84 00000080    3		je ??00C9
 000026AD  81 38 00A0522D    3		cmp dword ptr [EAX], 0A0522Dh
 000026B3  0F 84 00000153    3		je ??00C8
 000026B9  81 38 00F59B00    3		cmp dword ptr [EAX], 0F59B00h
 000026BF  74 0C	     3		je ??00C7
 000026C1  81 38 00FFFFFF    3		cmp dword ptr [EAX], 0FFFFFFh
 000026C7  0F 85 000001DB    3		jne ??00C5
 000026CD		     3		??00C7:
 000026CD  83 05 00001D0F R  3		add bomb_x, 0
	   00
 000026D4  83 05 00001D13 R  3		add bomb_y, 50
	   32
 000026DB  8B 3D 00001D13 R  4		mov EDI, bomb_y
 000026E1  BE 00000000	     4		mov ESI, 0
 000026E6		     4		??00CB:
 000026E6  8B C7	     5		mov eax, EDI; EAX = y
 000026E8  BB 000003B6	     5		mov ebx, area_width
 000026ED  F7 E3	     5		mul ebx; EAX = y*area_width
 000026EF  03 05 00001D0F R  5		add EAX, bomb_x; EAX = y*area_width+x
 000026F5  C1 E0 02	     5		shl eax, 2; EAX = (y*area_width+x)*4
 000026F8  03 05 0000000A R  5		add EAX, area
 000026FE  B9 00000032	     5		mov ECX, 50
 00002703		     5	??00CC:
 00002703  C7 00 00FFFFFF    5		mov dword ptr [eax], 0FFFFFFh
 00002709  83 C0 04	     5		add EAX,4
 0000270C  E2 F5	     5	loop ??00CC
 0000270E  46		     4		inc ESI
 0000270F  47		     4		inc EDI
 00002710  83 FE 32	     4		cmp ESI, 50
 00002713  75 D1	     4		jne ??00CB
 00002715  FF 05 00001D37 R  3		inc aux
 0000271B  83 3D 00001D37 R  3		cmp aux, 4
	   04
 00002722  0F 85 FFFFFF4C    3		jne ??00C6
 00002728  E9 0000017B	     3		jmp ??00C5
 0000272D		     3		??00C9:
 0000272D  C7 05 00001D2B R  4		mov enemy_alive,0
	   00000000
 00002737  C6 05 00001D0E R  4		mov bomb_check,0 
	   00
 0000273E  B8 000003B6	     4		mov eax, area_width
 00002743  BB 000003B6	     4		mov ebx, area_height
 00002748  F7 E3	     4		mul ebx
 0000274A  C1 E0 02	     4		shl eax, 2
 0000274D  50		     4		push eax
 0000274E  68 00A7A6A5	     4		push 0A7A6A5h ;coloram toata harta gri
 00002753  FF 35 0000000A R  4		push area
 00002759  E8 00000000 E     4		call memset
 0000275E  83 C4 0C	     4		add esp, 12
 00002761  68 000001DB	     5		push area_height/2
 00002766  68 000001C2	     5		push area_width/2-25
 0000276B  FF 35 0000000A R  5		push area
 00002771  6A 44	     5		push 'D'
 00002773  E8 FFFFD888	     5		call make_text
 00002778  83 C4 10	     5		add esp, 16
 0000277B  68 000001DB	     5		push area_height/2
 00002780  68 000001CC	     5		push area_width/2-15
 00002785  FF 35 0000000A R  5		push area
 0000278B  6A 45	     5		push 'E'
 0000278D  E8 FFFFD86E	     5		call make_text
 00002792  83 C4 10	     5		add esp, 16
 00002795  68 000001DB	     5		push area_height/2
 0000279A  68 000001D6	     5		push area_width/2-5
 0000279F  FF 35 0000000A R  5		push area
 000027A5  6A 46	     5		push 'F'
 000027A7  E8 FFFFD854	     5		call make_text
 000027AC  83 C4 10	     5		add esp, 16
 000027AF  68 000001DB	     5		push area_height/2
 000027B4  68 000001E0	     5		push area_width/2+5
 000027B9  FF 35 0000000A R  5		push area
 000027BF  6A 45	     5		push 'E'
 000027C1  E8 FFFFD83A	     5		call make_text
 000027C6  83 C4 10	     5		add esp, 16
 000027C9  68 000001DB	     5		push area_height/2
 000027CE  68 000001EA	     5		push area_width/2+15
 000027D3  FF 35 0000000A R  5		push area
 000027D9  6A 41	     5		push 'A'
 000027DB  E8 FFFFD820	     5		call make_text
 000027E0  83 C4 10	     5		add esp, 16
 000027E3  68 000001DB	     5		push area_height/2
 000027E8  68 000001F4	     5		push area_width/2+25
 000027ED  FF 35 0000000A R  5		push area
 000027F3  6A 54	     5		push 'T'
 000027F5  E8 FFFFD806	     5		call make_text
 000027FA  83 C4 10	     5		add esp, 16
 000027FD  C7 05 00001D33 R  4		mov game_over_check, 1
	   00000001
 00002807  E9 0000009C	     3		jmp ??00C5
 0000280C		     3		??00C8:
 0000280C  83 05 00001D0F R  3		add bomb_x, 0
	   00
 00002813  83 05 00001D13 R  3		add bomb_y, 50
	   32
 0000281A  8B 3D 00001D13 R  4		mov EDI, bomb_y
 00002820  BE 00000000	     4		mov ESI, 0
 00002825		     4		??00CD:
 00002825  8B C7	     5		mov eax, EDI; EAX = y
 00002827  BB 000003B6	     5		mov ebx, area_width
 0000282C  F7 E3	     5		mul ebx; EAX = y*area_width
 0000282E  03 05 00001D0F R  5		add EAX, bomb_x; EAX = y*area_width+x
 00002834  C1 E0 02	     5		shl eax, 2; EAX = (y*area_width+x)*4
 00002837  03 05 0000000A R  5		add EAX, area
 0000283D  B9 00000032	     5		mov ECX, 50
 00002842		     5	??00CE:
 00002842  C7 00 00FFFFFF    5		mov dword ptr [eax], 0FFFFFFh
 00002848  83 C0 04	     5		add EAX,4
 0000284B  E2 F5	     5	loop ??00CE
 0000284D  46		     4		inc ESI
 0000284E  47		     4		inc EDI
 0000284F  83 FE 32	     4		cmp ESI, 50
 00002852  75 D1	     4		jne ??00CD
 00002854  EB 52	     3		jmp ??00C5
 00002856		     3		??00CA:
 00002856  83 05 00001D0F R  3		add bomb_x, 0
	   00
 0000285D  83 05 00001D13 R  3		add bomb_y, 50
	   32
 00002864  8B 3D 00001D13 R  4		mov EDI, bomb_y
 0000286A  BE 00000000	     4		mov ESI, 0
 0000286F		     4		??00CF:
 0000286F  8B C7	     5		mov eax, EDI; EAX = y
 00002871  BB 000003B6	     5		mov ebx, area_width
 00002876  F7 E3	     5		mul ebx; EAX = y*area_width
 00002878  03 05 00001D0F R  5		add EAX, bomb_x; EAX = y*area_width+x
 0000287E  C1 E0 02	     5		shl eax, 2; EAX = (y*area_width+x)*4
 00002881  03 05 0000000A R  5		add EAX, area
 00002887  B9 00000032	     5		mov ECX, 50
 0000288C		     5	??00D0:
 0000288C  C7 00 00FFFFFF    5		mov dword ptr [eax], 0FFFFFFh
 00002892  83 C0 04	     5		add EAX,4
 00002895  E2 F5	     5	loop ??00D0
 00002897  46		     4		inc ESI
 00002898  47		     4		inc EDI
 00002899  83 FE 32	     4		cmp ESI, 50
 0000289C  75 D1	     4		jne ??00CF
 0000289E  C7 05 00001D2B R  3		mov enemy_alive,0
	   00000000
 000028A8		     3		??00C5:
 000028A8  8B 35 00001D3B R  3		mov ESI, aux1
 000028AE  89 35 00001D0F R  3		mov bomb_x, ESI
 000028B4  8B 35 00001D3F R  3		mov ESI, aux2
 000028BA  89 35 00001D13 R  3		mov bomb_y,ESI
 000028C0  A1 00001D06 R     2		mov EAX, bomberman_x
 000028C5  39 05 00001D0F R  2		cmp bomb_x, EAX
 000028CB  0F 85 000000ED    2		jne ??009F
 000028D1  A1 00001D0A R     2		mov EAX, bomberman_y
 000028D6  39 05 00001D13 R  2		cmp bomb_y, EAX
 000028DC  0F 85 000000DC    2		jne ??009F
 000028E2  C7 05 00001D2B R  3		mov enemy_alive,0
	   00000000
 000028EC  C6 05 00001D0E R  3		mov bomb_check,0 
	   00
 000028F3  B8 000003B6	     3		mov eax, area_width
 000028F8  BB 000003B6	     3		mov ebx, area_height
 000028FD  F7 E3	     3		mul ebx
 000028FF  C1 E0 02	     3		shl eax, 2
 00002902  50		     3		push eax
 00002903  68 00A7A6A5	     3		push 0A7A6A5h ;coloram toata harta gri
 00002908  FF 35 0000000A R  3		push area
 0000290E  E8 00000000 E     3		call memset
 00002913  83 C4 0C	     3		add esp, 12
 00002916  68 000001DB	     4		push area_height/2
 0000291B  68 000001C2	     4		push area_width/2-25
 00002920  FF 35 0000000A R  4		push area
 00002926  6A 44	     4		push 'D'
 00002928  E8 FFFFD6D3	     4		call make_text
 0000292D  83 C4 10	     4		add esp, 16
 00002930  68 000001DB	     4		push area_height/2
 00002935  68 000001CC	     4		push area_width/2-15
 0000293A  FF 35 0000000A R  4		push area
 00002940  6A 45	     4		push 'E'
 00002942  E8 FFFFD6B9	     4		call make_text
 00002947  83 C4 10	     4		add esp, 16
 0000294A  68 000001DB	     4		push area_height/2
 0000294F  68 000001D6	     4		push area_width/2-5
 00002954  FF 35 0000000A R  4		push area
 0000295A  6A 46	     4		push 'F'
 0000295C  E8 FFFFD69F	     4		call make_text
 00002961  83 C4 10	     4		add esp, 16
 00002964  68 000001DB	     4		push area_height/2
 00002969  68 000001E0	     4		push area_width/2+5
 0000296E  FF 35 0000000A R  4		push area
 00002974  6A 45	     4		push 'E'
 00002976  E8 FFFFD685	     4		call make_text
 0000297B  83 C4 10	     4		add esp, 16
 0000297E  68 000001DB	     4		push area_height/2
 00002983  68 000001EA	     4		push area_width/2+15
 00002988  FF 35 0000000A R  4		push area
 0000298E  6A 41	     4		push 'A'
 00002990  E8 FFFFD66B	     4		call make_text
 00002995  83 C4 10	     4		add esp, 16
 00002998  68 000001DB	     4		push area_height/2
 0000299D  68 000001F4	     4		push area_width/2+25
 000029A2  FF 35 0000000A R  4		push area
 000029A8  6A 54	     4		push 'T'
 000029AA  E8 FFFFD651	     4		call make_text
 000029AF  83 C4 10	     4		add esp, 16
 000029B2  C7 05 00001D33 R  3		mov game_over_check, 1
	   00000001
 000029BC  EB 63	     2		jmp ??00A0
 000029BE		     2		??009F:
 000029BE  A1 00001D13 R     3		mov EAX, bomb_y; EAX = y
 000029C3  83 C0 00	     3		add EAX, 0
 000029C6  BB 000003B6	     3		mov EBX, area_width
 000029CB  F7 E3	     3		mul EBX; EAX = y*area_width 
 000029CD  03 05 00001D0F R  3		add EAX, bomb_x; EAX = y*area_width+x
 000029D3  83 C0 00	     3		add EAX, 0
 000029D6  C1 E0 02	     3		shl EAX, 2; EAX = (y*area_width+x)*4
 000029D9  03 05 0000000A R  3		add EAX, area
 000029DF  81 38 00FFFFFF    2		cmp dword ptr [eax], 0FFFFFFh
 000029E5  75 3A	     2		jne ??00A0
 000029E7  8B 3D 00001D13 R  3		mov EDI, bomb_y
 000029ED  BE 00000000	     3		mov ESI, 0
 000029F2		     3		??00D1:
 000029F2  8B C7	     4		mov eax, EDI; EAX = y
 000029F4  BB 000003B6	     4		mov ebx, area_width
 000029F9  F7 E3	     4		mul ebx; EAX = y*area_width
 000029FB  03 05 00001D0F R  4		add EAX, bomb_x; EAX = y*area_width+x
 00002A01  C1 E0 02	     4		shl eax, 2; EAX = (y*area_width+x)*4
 00002A04  03 05 0000000A R  4		add EAX, area
 00002A0A  B9 00000032	     4		mov ECX, 50
 00002A0F		     4	??00D2:
 00002A0F  C7 00 00FFFFFF    4		mov dword ptr [eax], 0FFFFFFh
 00002A15  83 C0 04	     4		add EAX,4
 00002A18  E2 F5	     4	loop ??00D2
 00002A1A  46		     3		inc ESI
 00002A1B  47		     3		inc EDI
 00002A1C  83 FE 32	     3		cmp ESI, 50
 00002A1F  75 D1	     3		jne ??00D1
 00002A21		     2		??00A0:
 00002A21  8B 3D 00001D13 R  2		mov EDI, bomb_y
 00002A27  BE 00000000	     2		mov ESI, 0
 00002A2C		     2		??00D3:
 00002A2C  8B C7	     3		mov eax, EDI; EAX = y
 00002A2E  BB 000003B6	     3		mov ebx, area_width
 00002A33  F7 E3	     3		mul ebx; EAX = y*area_width
 00002A35  03 05 00001D0F R  3		add EAX, bomb_x; EAX = y*area_width+x
 00002A3B  C1 E0 02	     3		shl eax, 2; EAX = (y*area_width+x)*4
 00002A3E  03 05 0000000A R  3		add EAX, area
 00002A44  B9 00000032	     3		mov ECX, 50
 00002A49		     3	??00D4:
 00002A49  C7 00 00FFFFFF    3		mov dword ptr [eax], 0FFFFFFh
 00002A4F  83 C0 04	     3		add EAX,4
 00002A52  E2 F5	     3	loop ??00D4
 00002A54  46		     2		inc ESI
 00002A55  47		     2		inc EDI
 00002A56  83 FE 32	     2		cmp ESI, 50
 00002A59  75 D1	     2		jne ??00D3
 00002A5B  C7 05 00000016 R  1		mov counterExplosion, 0
	   00000000
 00002A65  C7 05 00001D17 R  1		mov explosion_check,0
	   00000000
 00002A6F  C6 05 00001D0E R  1		mov bomb_check, 0
	   00
 00002A76  EB 06	     1		jmp no_bomb
 00002A78		     1		no_explosion:
 00002A78  FF 05 00000012 R  1		inc counterBomb
 00002A7E		     1		no_bomb:
					
					;verificam miscarile inamicului
 00002A7E  83 3D 00001D2B R		cmp enemy_alive,1
	   01
 00002A85  0F 85 00000295		jne final_draw
					enemy_movement
 00002A8B  FF 05 0000001A R  1		inc counterEnemy
 00002A91  83 3D 0000001A R  1		cmp counterEnemy, 5
	   05
 00002A98  0F 85 00000282    1		jne ??00DC
 00002A9E		     1		??00DB:	
 00002A9E  A1 00001D43 R     2		mov EAX, random_aux
 00002AA3  F7 25 00001D0A R  2		mul bomberman_y
 00002AA9  03 05 00001D06 R  2		add EAX, bomberman_x
 00002AAF  C7 05 00001D3B R  2		mov aux1,773
	   00000305
 00002AB9  BA 00000000	     2		mov EDX, 0
 00002ABE  F7 35 00001D3B R  2		div aux1
 00002AC4  89 15 00001D43 R  2		mov random_aux, EDX
 00002ACA  A1 00001D43 R     2		mov EAX, random_aux
 00002ACF  BB 00000004	     2		mov EBX,4
 00002AD4  BA 00000000	     2		mov EDX,0
 00002AD9  F7 F3	     2		div EBX
 00002ADB  83 FA 00	     1		cmp EDX,0
 00002ADE  74 0F	     1		je ??00D5
 00002AE0  83 FA 01	     1		cmp EDX, 1
 00002AE3  74 20	     1		je ??00D6
 00002AE5  83 FA 02	     1		cmp EDX, 2
 00002AE8  74 47	     1		je ??00D7
 00002AEA  83 FA 03	     1		cmp EDX, 3
 00002AED  74 2C	     1		je ??00D8
 00002AEF		     1		??00D5:
 00002AEF  C7 05 00001D37 R  1		mov aux, 0
	   00000000
 00002AF9  C7 05 00001D3B R  1		mov aux1, -50
	   FFFFFFCE
 00002B03  EB 42	     1		jmp ??00D9
 00002B05		     1		??00D6:
 00002B05  C7 05 00001D37 R  1		mov aux, -50
	   FFFFFFCE
 00002B0F  C7 05 00001D3B R  1		mov aux1, 0
	   00000000
 00002B19  EB 2C	     1		jmp ??00D9
 00002B1B		     1		??00D8:
 00002B1B  C7 05 00001D37 R  1		mov aux, 50
	   00000032
 00002B25  C7 05 00001D3B R  1		mov aux1, 0
	   00000000
 00002B2F  EB 16	     1		jmp ??00D9
 00002B31		     1		??00D7:
 00002B31  C7 05 00001D37 R  1		mov aux, 0
	   00000000
 00002B3B  C7 05 00001D3B R  1		mov aux1, 50
	   00000032
 00002B45  EB 00	     1		jmp ??00D9
 00002B47		     1		??00D9:
 00002B47  C7 05 0000001A R  1		mov counterEnemy,0
	   00000000
 00002B51  A1 00001D23 R     2		mov EAX, enemy_y; EAX = y
 00002B56  03 05 00001D3B R  2		add EAX, aux1
 00002B5C  BB 000003B6	     2		mov EBX, area_width
 00002B61  F7 E3	     2		mul EBX; EAX = y*area_width 
 00002B63  03 05 00001D1B R  2		add EAX, enemy_x; EAX = y*area_width+x
 00002B69  03 05 00001D37 R  2		add EAX, aux
 00002B6F  C1 E0 02	     2		shl EAX, 2; EAX = (y*area_width+x)*4
 00002B72  03 05 0000000A R  2		add EAX, area
 00002B78  81 38 00FF0000    1		cmp dword ptr [EAX], 0FF0000h
 00002B7E  0F 84 000000C2    1		je ??00DA
 00002B84  A1 00001D23 R     2		mov EAX, enemy_y; EAX = y
 00002B89  03 05 00001D3B R  2		add EAX, aux1
 00002B8F  BB 000003B6	     2		mov EBX, area_width
 00002B94  F7 E3	     2		mul EBX; EAX = y*area_width 
 00002B96  03 05 00001D1B R  2		add EAX, enemy_x; EAX = y*area_width+x
 00002B9C  03 05 00001D37 R  2		add EAX, aux
 00002BA2  C1 E0 02	     2		shl EAX, 2; EAX = (y*area_width+x)*4
 00002BA5  03 05 0000000A R  2		add EAX, area
 00002BAB  81 38 00FFFFFF    1		cmp dword ptr [EAX], 0FFFFFFh
 00002BB1  0F 85 FFFFFEE7    1		jne ??00DB
 00002BB7		     1		??00DD:
 00002BB7  8B 3D 00001D23 R  2		mov EDI, enemy_y
 00002BBD  BE 00000000	     2		mov ESI, 0
 00002BC2		     2		??00DE:
 00002BC2  8B C7	     3		mov eax, EDI; EAX = y
 00002BC4  BB 000003B6	     3		mov ebx, area_width
 00002BC9  F7 E3	     3		mul ebx; EAX = y*area_width
 00002BCB  03 05 00001D1B R  3		add EAX, enemy_x; EAX = y*area_width+x
 00002BD1  C1 E0 02	     3		shl eax, 2; EAX = (y*area_width+x)*4
 00002BD4  03 05 0000000A R  3		add EAX, area
 00002BDA  B9 00000032	     3		mov ECX, 50
 00002BDF		     3	??00DF:
 00002BDF  C7 00 00FFFFFF    3		mov dword ptr [eax], 0FFFFFFh
 00002BE5  83 C0 04	     3		add EAX,4
 00002BE8  E2 F5	     3	loop ??00DF
 00002BEA  46		     2		inc ESI
 00002BEB  47		     2		inc EDI
 00002BEC  83 FE 32	     2		cmp ESI, 50
 00002BEF  75 D1	     2		jne ??00DE
 00002BF1  A1 00001D37 R     1		mov EAX, aux
 00002BF6  01 05 00001D1B R  1		add enemy_x, EAX
 00002BFC  A1 00001D3B R     1		mov EAX, aux1
 00002C01  01 05 00001D23 R  1		add enemy_y, EAX
 00002C07  8B 3D 00001D23 R  2		mov EDI, enemy_y
 00002C0D  BE 00000000	     2		mov ESI, 0
 00002C12		     2		??00E0:
 00002C12  8B C7	     3		mov eax, EDI; EAX = y
 00002C14  BB 000003B6	     3		mov ebx, area_width
 00002C19  F7 E3	     3		mul ebx; EAX = y*area_width
 00002C1B  03 05 00001D1B R  3		add EAX, enemy_x; EAX = y*area_width+x
 00002C21  C1 E0 02	     3		shl eax, 2; EAX = (y*area_width+x)*4
 00002C24  03 05 0000000A R  3		add EAX, area
 00002C2A  B9 00000032	     3		mov ECX, 50
 00002C2F		     3	??00E1:
 00002C2F  C7 00 00FF69B4    3		mov dword ptr [eax], 0FF69B4h
 00002C35  83 C0 04	     3		add EAX,4
 00002C38  E2 F5	     3	loop ??00E1
 00002C3A  46		     2		inc ESI
 00002C3B  47		     2		inc EDI
 00002C3C  83 FE 32	     2		cmp ESI, 50
 00002C3F  75 D1	     2		jne ??00E0
 00002C41  E9 000000DA	     1		jmp ??00DC
 00002C46		     1		??00DA:
 00002C46  C7 05 00001D2B R  2		mov enemy_alive,0
	   00000000
 00002C50  C6 05 00001D0E R  2		mov bomb_check,0 
	   00
 00002C57  B8 000003B6	     2		mov eax, area_width
 00002C5C  BB 000003B6	     2		mov ebx, area_height
 00002C61  F7 E3	     2		mul ebx
 00002C63  C1 E0 02	     2		shl eax, 2
 00002C66  50		     2		push eax
 00002C67  68 00A7A6A5	     2		push 0A7A6A5h ;coloram toata harta gri
 00002C6C  FF 35 0000000A R  2		push area
 00002C72  E8 00000000 E     2		call memset
 00002C77  83 C4 0C	     2		add esp, 12
 00002C7A  68 000001DB	     3		push area_height/2
 00002C7F  68 000001C2	     3		push area_width/2-25
 00002C84  FF 35 0000000A R  3		push area
 00002C8A  6A 44	     3		push 'D'
 00002C8C  E8 FFFFD36F	     3		call make_text
 00002C91  83 C4 10	     3		add esp, 16
 00002C94  68 000001DB	     3		push area_height/2
 00002C99  68 000001CC	     3		push area_width/2-15
 00002C9E  FF 35 0000000A R  3		push area
 00002CA4  6A 45	     3		push 'E'
 00002CA6  E8 FFFFD355	     3		call make_text
 00002CAB  83 C4 10	     3		add esp, 16
 00002CAE  68 000001DB	     3		push area_height/2
 00002CB3  68 000001D6	     3		push area_width/2-5
 00002CB8  FF 35 0000000A R  3		push area
 00002CBE  6A 46	     3		push 'F'
 00002CC0  E8 FFFFD33B	     3		call make_text
 00002CC5  83 C4 10	     3		add esp, 16
 00002CC8  68 000001DB	     3		push area_height/2
 00002CCD  68 000001E0	     3		push area_width/2+5
 00002CD2  FF 35 0000000A R  3		push area
 00002CD8  6A 45	     3		push 'E'
 00002CDA  E8 FFFFD321	     3		call make_text
 00002CDF  83 C4 10	     3		add esp, 16
 00002CE2  68 000001DB	     3		push area_height/2
 00002CE7  68 000001EA	     3		push area_width/2+15
 00002CEC  FF 35 0000000A R  3		push area
 00002CF2  6A 41	     3		push 'A'
 00002CF4  E8 FFFFD307	     3		call make_text
 00002CF9  83 C4 10	     3		add esp, 16
 00002CFC  68 000001DB	     3		push area_height/2
 00002D01  68 000001F4	     3		push area_width/2+25
 00002D06  FF 35 0000000A R  3		push area
 00002D0C  6A 54	     3		push 'T'
 00002D0E  E8 FFFFD2ED	     3		call make_text
 00002D13  83 C4 10	     3		add esp, 16
 00002D16  C7 05 00001D33 R  2		mov game_over_check, 1
	   00000001
 00002D20		     1		??00DC:
					
 00002D20			final_draw:
 00002D20  61				popa
 00002D21  8B E5			mov esp, ebp
 00002D23  5D				pop ebp
 00002D24  C3				ret
 00002D25			draw endp

				;;;;;;;;;;;;;;;;;;;;;;;;;;;;;;;;;;;;;;;;;;;;;;;;;;;;;;;;;;;;;;;;;;;;;;;;;;;;;;;;;;;;;;;;;;;;;;;;;;;;
																									           ;MAIN
 00002D25			start:
					;alocam memorie pentru zona de desenat
 00002D25  B8 000003B6			mov eax, area_width
 00002D2A  BB 000003B6			mov ebx, area_height
 00002D2F  F7 E3			mul ebx
 00002D31  C1 E0 02			shl eax, 2
 00002D34  50				push eax
 00002D35  E8 00000000 E		call malloc
 00002D3A  83 C4 04			add esp, 4
 00002D3D  A3 0000000A R		mov area, eax
					
					;apelam functia BEGIN DRAWING
 00002D42  68 00000092 R		push offset draw
 00002D47  FF 35 0000000A R		push area
 00002D4D  68 000003B6			push area_height
 00002D52  68 000003B6			push area_width
 00002D57  68 00000000 R		push offset window_title
 00002D5C  E8 00000000 E		call BeginDrawing
 00002D61  83 C4 14			add esp, 20
					
					;terminarea programului
 00002D64  6A 00			push 0
 00002D66  E8 00000000 E		call exit
				end start
Microsoft (R) Macro Assembler Version 14.38.33133.0	    12/14/23 14:39:22
test.asm						     Symbols 2 - 1




Macros:

                N a m e                 Type

bomb_mechanism . . . . . . . . .	Proc
calculate_pozition . . . . . . .	Proc
draw_arrow . . . . . . . . . . .	Proc
draw_square  . . . . . . . . . .	Proc
enemy_movement . . . . . . . . .	Proc
explosion_radius . . . . . . . .	Proc
explosion  . . . . . . . . . . .	Proc
game_over  . . . . . . . . . . .	Proc
line_horizontal  . . . . . . . .	Proc
line_vertical  . . . . . . . . .	Proc
make_text_macro  . . . . . . . .	Proc
press_button_bomb  . . . . . . .	Proc
press_button . . . . . . . . . .	Proc
random . . . . . . . . . . . . .	Proc


Segments and Groups:

                N a m e                 Size     Length   Align   Combine Class

FLAT . . . . . . . . . . . . . .	GROUP
_DATA  . . . . . . . . . . . . .	32 Bit	 00001D47 DWord	  Public  'DATA'	
_TEXT  . . . . . . . . . . . . .	32 Bit	 00002D6B DWord	  Public  'CODE'	


Procedures, parameters, and locals:

                N a m e                 Type     Value    Attr

draw . . . . . . . . . . . . . .	P Near	 00000092 _TEXT	Length= 00002C93 Public STDCALL
  horizontal_white . . . . . . .	L Near	 000000D3 _TEXT	
  ??0000 . . . . . . . . . . . .	L Near	 000000ED _TEXT	
  vertical_white2  . . . . . . .	L Near	 00000108 _TEXT	
  vertical_white1  . . . . . . .	L Near	 0000010D _TEXT	
  ??0001 . . . . . . . . . . . .	L Near	 00000126 _TEXT	
  left_border  . . . . . . . . .	L Near	 00000147 _TEXT	
  ??0002 . . . . . . . . . . . .	L Near	 00000161 _TEXT	
  right_border . . . . . . . . .	L Near	 00000177 _TEXT	
  ??0003 . . . . . . . . . . . .	L Near	 00000193 _TEXT	
  ??0004 . . . . . . . . . . . .	L Near	 000001AE _TEXT	
  ??0005 . . . . . . . . . . . .	L Near	 000001C8 _TEXT	
  ??0006 . . . . . . . . . . . .	L Near	 000001E4 _TEXT	
  ??0007 . . . . . . . . . . . .	L Near	 00000200 _TEXT	
  ??0008 . . . . . . . . . . . .	L Near	 0000021C _TEXT	
  ??0009 . . . . . . . . . . . .	L Near	 00000238 _TEXT	
  ??000A . . . . . . . . . . . .	L Near	 00000254 _TEXT	
  ??000B . . . . . . . . . . . .	L Near	 00000270 _TEXT	
  ??000C . . . . . . . . . . . .	L Near	 0000028C _TEXT	
  ??000D . . . . . . . . . . . .	L Near	 000002A8 _TEXT	
  ??0010 . . . . . . . . . . . .	L Near	 00000304 _TEXT	
  ??0013 . . . . . . . . . . . .	L Near	 0000031D _TEXT	
  ??000E . . . . . . . . . . . .	L Near	 0000033C _TEXT	
  ??0014 . . . . . . . . . . . .	L Near	 00000355 _TEXT	
  ??000F . . . . . . . . . . . .	L Near	 00000371 _TEXT	
  ??0015 . . . . . . . . . . . .	L Near	 0000038A _TEXT	
  ??0011 . . . . . . . . . . . .	L Near	 000003A8 _TEXT	
  ??0016 . . . . . . . . . . . .	L Near	 000003C1 _TEXT	
  ??0012 . . . . . . . . . . . .	L Near	 000003DD _TEXT	
  ??0019 . . . . . . . . . . . .	L Near	 00000427 _TEXT	
  ??001C . . . . . . . . . . . .	L Near	 00000440 _TEXT	
  ??0017 . . . . . . . . . . . .	L Near	 0000045F _TEXT	
  ??001D . . . . . . . . . . . .	L Near	 00000478 _TEXT	
  ??0018 . . . . . . . . . . . .	L Near	 00000494 _TEXT	
  ??001E . . . . . . . . . . . .	L Near	 000004AD _TEXT	
  ??001A . . . . . . . . . . . .	L Near	 000004CB _TEXT	
  ??001F . . . . . . . . . . . .	L Near	 000004E4 _TEXT	
  ??001B . . . . . . . . . . . .	L Near	 00000500 _TEXT	
  ??0022 . . . . . . . . . . . .	L Near	 0000054A _TEXT	
  ??0025 . . . . . . . . . . . .	L Near	 00000563 _TEXT	
  ??0020 . . . . . . . . . . . .	L Near	 00000582 _TEXT	
  ??0026 . . . . . . . . . . . .	L Near	 0000059B _TEXT	
  ??0021 . . . . . . . . . . . .	L Near	 000005B7 _TEXT	
  ??0027 . . . . . . . . . . . .	L Near	 000005D0 _TEXT	
  ??0023 . . . . . . . . . . . .	L Near	 000005EE _TEXT	
  ??0028 . . . . . . . . . . . .	L Near	 00000607 _TEXT	
  ??0024 . . . . . . . . . . . .	L Near	 00000623 _TEXT	
  ??002B . . . . . . . . . . . .	L Near	 0000066D _TEXT	
  ??002E . . . . . . . . . . . .	L Near	 00000686 _TEXT	
  ??0029 . . . . . . . . . . . .	L Near	 000006A5 _TEXT	
  ??002F . . . . . . . . . . . .	L Near	 000006BE _TEXT	
  ??002A . . . . . . . . . . . .	L Near	 000006DA _TEXT	
  ??0030 . . . . . . . . . . . .	L Near	 000006F3 _TEXT	
  ??002C . . . . . . . . . . . .	L Near	 00000711 _TEXT	
  ??0031 . . . . . . . . . . . .	L Near	 0000072A _TEXT	
  ??002D . . . . . . . . . . . .	L Near	 00000746 _TEXT	
  ??0032 . . . . . . . . . . . .	L Near	 000007B8 _TEXT	
  ??0033 . . . . . . . . . . . .	L Near	 000007D4 _TEXT	
  ??0034 . . . . . . . . . . . .	L Near	 000007F0 _TEXT	
  ??0035 . . . . . . . . . . . .	L Near	 0000080C _TEXT	
  ??0036 . . . . . . . . . . . .	L Near	 00000828 _TEXT	
  ??0037 . . . . . . . . . . . .	L Near	 00000844 _TEXT	
  ??0038 . . . . . . . . . . . .	L Near	 00000860 _TEXT	
  ??0039 . . . . . . . . . . . .	L Near	 0000087C _TEXT	
  ??003A . . . . . . . . . . . .	L Near	 00000898 _TEXT	
  ??003B . . . . . . . . . . . .	L Near	 000008B4 _TEXT	
  ??003C . . . . . . . . . . . .	L Near	 000008D0 _TEXT	
  ??003D . . . . . . . . . . . .	L Near	 000008EC _TEXT	
  ??003E . . . . . . . . . . . .	L Near	 00000908 _TEXT	
  ??003F . . . . . . . . . . . .	L Near	 00000924 _TEXT	
  ??0040 . . . . . . . . . . . .	L Near	 00000940 _TEXT	
  ??0041 . . . . . . . . . . . .	L Near	 0000095C _TEXT	
  ??0042 . . . . . . . . . . . .	L Near	 00000978 _TEXT	
  ??0043 . . . . . . . . . . . .	L Near	 00000994 _TEXT	
  ??0044 . . . . . . . . . . . .	L Near	 000009B0 _TEXT	
  ??0045 . . . . . . . . . . . .	L Near	 000009CC _TEXT	
  ??0046 . . . . . . . . . . . .	L Near	 000009E8 _TEXT	
  ??0047 . . . . . . . . . . . .	L Near	 00000A02 _TEXT	
  evt_click  . . . . . . . . . .	L Near	 00000A19 _TEXT	
  ??004B . . . . . . . . . . . .	L Near	 00000AE3 _TEXT	
  ??004C . . . . . . . . . . . .	L Near	 00000B00 _TEXT	
  ??0049 . . . . . . . . . . . .	L Near	 00000B12 _TEXT	
  ??004D . . . . . . . . . . . .	L Near	 00000B2B _TEXT	
  ??004E . . . . . . . . . . . .	L Near	 00000B48 _TEXT	
  ??004A . . . . . . . . . . . .	L Near	 00000B5F _TEXT	
  ??0048 . . . . . . . . . . . .	L Near	 00000C39 _TEXT	
  ??0052 . . . . . . . . . . . .	L Near	 00000CF6 _TEXT	
  ??0053 . . . . . . . . . . . .	L Near	 00000D13 _TEXT	
  ??0050 . . . . . . . . . . . .	L Near	 00000D25 _TEXT	
  ??0054 . . . . . . . . . . . .	L Near	 00000D3E _TEXT	
  ??0055 . . . . . . . . . . . .	L Near	 00000D5B _TEXT	
  ??0051 . . . . . . . . . . . .	L Near	 00000D72 _TEXT	
  ??004F . . . . . . . . . . . .	L Near	 00000E4C _TEXT	
  ??0059 . . . . . . . . . . . .	L Near	 00000F09 _TEXT	
  ??005A . . . . . . . . . . . .	L Near	 00000F26 _TEXT	
  ??0057 . . . . . . . . . . . .	L Near	 00000F38 _TEXT	
  ??005B . . . . . . . . . . . .	L Near	 00000F51 _TEXT	
  ??005C . . . . . . . . . . . .	L Near	 00000F6E _TEXT	
  ??0058 . . . . . . . . . . . .	L Near	 00000F85 _TEXT	
  ??0056 . . . . . . . . . . . .	L Near	 0000105F _TEXT	
  ??0060 . . . . . . . . . . . .	L Near	 0000111C _TEXT	
  ??0061 . . . . . . . . . . . .	L Near	 00001139 _TEXT	
  ??005E . . . . . . . . . . . .	L Near	 0000114B _TEXT	
  ??0062 . . . . . . . . . . . .	L Near	 00001164 _TEXT	
  ??0063 . . . . . . . . . . . .	L Near	 00001181 _TEXT	
  ??005F . . . . . . . . . . . .	L Near	 00001198 _TEXT	
  ??005D . . . . . . . . . . . .	L Near	 00001272 _TEXT	
  ??0065 . . . . . . . . . . . .	L Near	 000012A8 _TEXT	
  ??0066 . . . . . . . . . . . .	L Near	 000012C5 _TEXT	
  ??0064 . . . . . . . . . . . .	L Near	 000012F2 _TEXT	
  evt_timer  . . . . . . . . . .	L Near	 000012F2 _TEXT	
  ??0067 . . . . . . . . . . . .	L Near	 00001350 _TEXT	
  ??0068 . . . . . . . . . . . .	L Near	 0000136D _TEXT	
  black  . . . . . . . . . . . .	L Near	 00001381 _TEXT	
  ??0069 . . . . . . . . . . . .	L Near	 0000138C _TEXT	
  ??006A . . . . . . . . . . . .	L Near	 000013A9 _TEXT	
  off  . . . . . . . . . . . . .	L Near	 000013BB _TEXT	
  ??006E . . . . . . . . . . . .	L Near	 000013FE _TEXT	
  ??006F . . . . . . . . . . . .	L Near	 00001457 _TEXT	
  ??0073 . . . . . . . . . . . .	L Near	 00001470 _TEXT	
  ??0074 . . . . . . . . . . . .	L Near	 0000148D _TEXT	
  ??0071 . . . . . . . . . . . .	L Near	 000014B7 _TEXT	
  ??0070 . . . . . . . . . . . .	L Near	 00001596 _TEXT	
  ??0075 . . . . . . . . . . . .	L Near	 000015AF _TEXT	
  ??0076 . . . . . . . . . . . .	L Near	 000015CC _TEXT	
  ??0072 . . . . . . . . . . . .	L Near	 000015E0 _TEXT	
  ??0077 . . . . . . . . . . . .	L Near	 000015F9 _TEXT	
  ??0078 . . . . . . . . . . . .	L Near	 00001616 _TEXT	
  ??006D . . . . . . . . . . . .	L Near	 00001632 _TEXT	
  ??007A . . . . . . . . . . . .	L Near	 0000166C _TEXT	
  ??007B . . . . . . . . . . . .	L Near	 000016C5 _TEXT	
  ??007F . . . . . . . . . . . .	L Near	 000016DE _TEXT	
  ??0080 . . . . . . . . . . . .	L Near	 000016FB _TEXT	
  ??007D . . . . . . . . . . . .	L Near	 00001725 _TEXT	
  ??007C . . . . . . . . . . . .	L Near	 00001804 _TEXT	
  ??0081 . . . . . . . . . . . .	L Near	 0000181D _TEXT	
  ??0082 . . . . . . . . . . . .	L Near	 0000183A _TEXT	
  ??007E . . . . . . . . . . . .	L Near	 0000184E _TEXT	
  ??0083 . . . . . . . . . . . .	L Near	 00001867 _TEXT	
  ??0084 . . . . . . . . . . . .	L Near	 00001884 _TEXT	
  ??0079 . . . . . . . . . . . .	L Near	 000018A0 _TEXT	
  ??0086 . . . . . . . . . . . .	L Near	 000018DA _TEXT	
  ??0087 . . . . . . . . . . . .	L Near	 00001933 _TEXT	
  ??008B . . . . . . . . . . . .	L Near	 0000194C _TEXT	
  ??008C . . . . . . . . . . . .	L Near	 00001969 _TEXT	
  ??0089 . . . . . . . . . . . .	L Near	 00001993 _TEXT	
  ??0088 . . . . . . . . . . . .	L Near	 00001A72 _TEXT	
  ??008D . . . . . . . . . . . .	L Near	 00001A8B _TEXT	
  ??008E . . . . . . . . . . . .	L Near	 00001AA8 _TEXT	
  ??008A . . . . . . . . . . . .	L Near	 00001ABC _TEXT	
  ??008F . . . . . . . . . . . .	L Near	 00001AD5 _TEXT	
  ??0090 . . . . . . . . . . . .	L Near	 00001AF2 _TEXT	
  ??0085 . . . . . . . . . . . .	L Near	 00001B0E _TEXT	
  ??0092 . . . . . . . . . . . .	L Near	 00001B48 _TEXT	
  ??0093 . . . . . . . . . . . .	L Near	 00001BA1 _TEXT	
  ??0097 . . . . . . . . . . . .	L Near	 00001BBA _TEXT	
  ??0098 . . . . . . . . . . . .	L Near	 00001BD7 _TEXT	
  ??0095 . . . . . . . . . . . .	L Near	 00001C01 _TEXT	
  ??0094 . . . . . . . . . . . .	L Near	 00001CE0 _TEXT	
  ??0099 . . . . . . . . . . . .	L Near	 00001CF9 _TEXT	
  ??009A . . . . . . . . . . . .	L Near	 00001D16 _TEXT	
  ??0096 . . . . . . . . . . . .	L Near	 00001D2A _TEXT	
  ??009B . . . . . . . . . . . .	L Near	 00001D43 _TEXT	
  ??009C . . . . . . . . . . . .	L Near	 00001D60 _TEXT	
  ??0091 . . . . . . . . . . . .	L Near	 00001D7C _TEXT	
  ??006B . . . . . . . . . . . .	L Near	 00001E92 _TEXT	
  ??009D . . . . . . . . . . . .	L Near	 00001EC6 _TEXT	
  ??009E . . . . . . . . . . . .	L Near	 00001EE3 _TEXT	
  ??006C . . . . . . . . . . . .	L Near	 00001EF5 _TEXT	
  explosion_timer  . . . . . . .	L Near	 00001EF5 _TEXT	
  ??00A2 . . . . . . . . . . . .	L Near	 00001F2A _TEXT	
  ??00A3 . . . . . . . . . . . .	L Near	 00001F83 _TEXT	
  ??00A7 . . . . . . . . . . . .	L Near	 00001F9C _TEXT	
  ??00A8 . . . . . . . . . . . .	L Near	 00001FB9 _TEXT	
  ??00A5 . . . . . . . . . . . .	L Near	 00001FE3 _TEXT	
  ??00A4 . . . . . . . . . . . .	L Near	 000020C2 _TEXT	
  ??00A9 . . . . . . . . . . . .	L Near	 000020DB _TEXT	
  ??00AA . . . . . . . . . . . .	L Near	 000020F8 _TEXT	
  ??00A6 . . . . . . . . . . . .	L Near	 0000210C _TEXT	
  ??00AB . . . . . . . . . . . .	L Near	 00002125 _TEXT	
  ??00AC . . . . . . . . . . . .	L Near	 00002142 _TEXT	
  ??00A1 . . . . . . . . . . . .	L Near	 0000215E _TEXT	
  ??00AE . . . . . . . . . . . .	L Near	 00002198 _TEXT	
  ??00AF . . . . . . . . . . . .	L Near	 000021F1 _TEXT	
  ??00B3 . . . . . . . . . . . .	L Near	 0000220A _TEXT	
  ??00B4 . . . . . . . . . . . .	L Near	 00002227 _TEXT	
  ??00B1 . . . . . . . . . . . .	L Near	 00002251 _TEXT	
  ??00B0 . . . . . . . . . . . .	L Near	 00002330 _TEXT	
  ??00B5 . . . . . . . . . . . .	L Near	 00002349 _TEXT	
  ??00B6 . . . . . . . . . . . .	L Near	 00002366 _TEXT	
  ??00B2 . . . . . . . . . . . .	L Near	 0000237A _TEXT	
  ??00B7 . . . . . . . . . . . .	L Near	 00002393 _TEXT	
  ??00B8 . . . . . . . . . . . .	L Near	 000023B0 _TEXT	
  ??00AD . . . . . . . . . . . .	L Near	 000023CC _TEXT	
  ??00BA . . . . . . . . . . . .	L Near	 00002406 _TEXT	
  ??00BB . . . . . . . . . . . .	L Near	 0000245F _TEXT	
  ??00BF . . . . . . . . . . . .	L Near	 00002478 _TEXT	
  ??00C0 . . . . . . . . . . . .	L Near	 00002495 _TEXT	
  ??00BD . . . . . . . . . . . .	L Near	 000024BF _TEXT	
  ??00BC . . . . . . . . . . . .	L Near	 0000259E _TEXT	
  ??00C1 . . . . . . . . . . . .	L Near	 000025B7 _TEXT	
  ??00C2 . . . . . . . . . . . .	L Near	 000025D4 _TEXT	
  ??00BE . . . . . . . . . . . .	L Near	 000025E8 _TEXT	
  ??00C3 . . . . . . . . . . . .	L Near	 00002601 _TEXT	
  ??00C4 . . . . . . . . . . . .	L Near	 0000261E _TEXT	
  ??00B9 . . . . . . . . . . . .	L Near	 0000263A _TEXT	
  ??00C6 . . . . . . . . . . . .	L Near	 00002674 _TEXT	
  ??00C7 . . . . . . . . . . . .	L Near	 000026CD _TEXT	
  ??00CB . . . . . . . . . . . .	L Near	 000026E6 _TEXT	
  ??00CC . . . . . . . . . . . .	L Near	 00002703 _TEXT	
  ??00C9 . . . . . . . . . . . .	L Near	 0000272D _TEXT	
  ??00C8 . . . . . . . . . . . .	L Near	 0000280C _TEXT	
  ??00CD . . . . . . . . . . . .	L Near	 00002825 _TEXT	
  ??00CE . . . . . . . . . . . .	L Near	 00002842 _TEXT	
  ??00CA . . . . . . . . . . . .	L Near	 00002856 _TEXT	
  ??00CF . . . . . . . . . . . .	L Near	 0000286F _TEXT	
  ??00D0 . . . . . . . . . . . .	L Near	 0000288C _TEXT	
  ??00C5 . . . . . . . . . . . .	L Near	 000028A8 _TEXT	
  ??009F . . . . . . . . . . . .	L Near	 000029BE _TEXT	
  ??00D1 . . . . . . . . . . . .	L Near	 000029F2 _TEXT	
  ??00D2 . . . . . . . . . . . .	L Near	 00002A0F _TEXT	
  ??00A0 . . . . . . . . . . . .	L Near	 00002A21 _TEXT	
  ??00D3 . . . . . . . . . . . .	L Near	 00002A2C _TEXT	
  ??00D4 . . . . . . . . . . . .	L Near	 00002A49 _TEXT	
  no_explosion . . . . . . . . .	L Near	 00002A78 _TEXT	
  no_bomb  . . . . . . . . . . .	L Near	 00002A7E _TEXT	
  ??00DB . . . . . . . . . . . .	L Near	 00002A9E _TEXT	
  ??00D5 . . . . . . . . . . . .	L Near	 00002AEF _TEXT	
  ??00D6 . . . . . . . . . . . .	L Near	 00002B05 _TEXT	
  ??00D8 . . . . . . . . . . . .	L Near	 00002B1B _TEXT	
  ??00D7 . . . . . . . . . . . .	L Near	 00002B31 _TEXT	
  ??00D9 . . . . . . . . . . . .	L Near	 00002B47 _TEXT	
  ??00DD . . . . . . . . . . . .	L Near	 00002BB7 _TEXT	
  ??00DE . . . . . . . . . . . .	L Near	 00002BC2 _TEXT	
  ??00DF . . . . . . . . . . . .	L Near	 00002BDF _TEXT	
  ??00E0 . . . . . . . . . . . .	L Near	 00002C12 _TEXT	
  ??00E1 . . . . . . . . . . . .	L Near	 00002C2F _TEXT	
  ??00DA . . . . . . . . . . . .	L Near	 00002C46 _TEXT	
  ??00DC . . . . . . . . . . . .	L Near	 00002D20 _TEXT	
  final_draw . . . . . . . . . .	L Near	 00002D20 _TEXT	
make_text  . . . . . . . . . . .	P Near	 00000000 _TEXT	Length= 00000092 Public STDCALL
  make_digit . . . . . . . . . .	L Near	 0000001C _TEXT	
  make_space . . . . . . . . . .	L Near	 00000031 _TEXT	
  draw_text  . . . . . . . . . .	L Near	 0000003C _TEXT	
  bucla_simbol_linii . . . . . .	L Near	 00000051 _TEXT	
  bucla_simbol_coloane . . . . .	L Near	 00000071 _TEXT	
  simbol_pixel_alb . . . . . . .	L Near	 0000007E _TEXT	
  simbol_pixel_next  . . . . . .	L Near	 00000084 _TEXT	


Symbols:

                N a m e                 Type     Value    Attr

@CodeSize  . . . . . . . . . . .	Number	 00000000h   
@DataSize  . . . . . . . . . . .	Number	 00000000h   
@Interface . . . . . . . . . . .	Number	 00000003h   
@Model . . . . . . . . . . . . .	Number	 00000007h   
@code  . . . . . . . . . . . . .	Text   	 _TEXT
@data  . . . . . . . . . . . . .	Text   	 FLAT
@fardata?  . . . . . . . . . . .	Text   	 FLAT
@fardata . . . . . . . . . . . .	Text   	 FLAT
@stack . . . . . . . . . . . . .	Text   	 FLAT
BeginDrawing . . . . . . . . . .	L Near	 00000000 FLAT	External STDCALL
area_height  . . . . . . . . . .	Number	 000003B6h   
area_width . . . . . . . . . . .	Number	 000003B6h   
area . . . . . . . . . . . . . .	DWord	 0000000A _DATA	
arg1 . . . . . . . . . . . . . .	Number	 00000008h   
arg2 . . . . . . . . . . . . . .	Number	 0000000Ch   
arg3 . . . . . . . . . . . . . .	Number	 00000010h   
arg4 . . . . . . . . . . . . . .	Number	 00000014h   
aux1 . . . . . . . . . . . . . .	DWord	 00001D3B _DATA	
aux2 . . . . . . . . . . . . . .	DWord	 00001D3F _DATA	
aux  . . . . . . . . . . . . . .	DWord	 00001D37 _DATA	
bomb_check . . . . . . . . . . .	Byte	 00001D0E _DATA	
bomb_x . . . . . . . . . . . . .	DWord	 00001D0F _DATA	
bomb_y . . . . . . . . . . . . .	DWord	 00001D13 _DATA	
bomberman_x  . . . . . . . . . .	DWord	 00001D06 _DATA	
bomberman_y  . . . . . . . . . .	DWord	 00001D0A _DATA	
button_bomb_x  . . . . . . . . .	Number	 00000352h   
button_bomb_y  . . . . . . . . .	Number	 00000352h   
button_down_x  . . . . . . . . .	Number	 00000352h   
button_down_y  . . . . . . . . .	Number	 00000384h   
button_left_x  . . . . . . . . .	Number	 00000320h   
button_left_y  . . . . . . . . .	Number	 00000352h   
button_right_x . . . . . . . . .	Number	 00000384h   
button_right_y . . . . . . . . .	Number	 00000352h   
button_up_x  . . . . . . . . . .	Number	 00000352h   
button_up_y  . . . . . . . . . .	Number	 00000320h   
counterBomb  . . . . . . . . . .	DWord	 00000012 _DATA	
counterEnemy . . . . . . . . . .	DWord	 0000001A _DATA	
counterExplosion . . . . . . . .	DWord	 00000016 _DATA	
counter  . . . . . . . . . . . .	DWord	 0000000E _DATA	
digits . . . . . . . . . . . . .	Byte	 0000001E _DATA	
enemy_alive  . . . . . . . . . .	DWord	 00001D2B _DATA	
enemy_x  . . . . . . . . . . . .	DWord	 00001D1B _DATA	
enemy_y  . . . . . . . . . . . .	DWord	 00001D23 _DATA	
exit . . . . . . . . . . . . . .	L Near	 00000000 FLAT	External STDCALL
explosion_check  . . . . . . . .	DWord	 00001D17 _DATA	
game_over_check  . . . . . . . .	DWord	 00001D33 _DATA	
letters  . . . . . . . . . . . .	Byte	 000007EE _DATA	
malloc . . . . . . . . . . . . .	L Near	 00000000 FLAT	External STDCALL
memset . . . . . . . . . . . . .	L Near	 00000000 FLAT	External STDCALL
random_aux . . . . . . . . . . .	DWord	 00001D43 _DATA	
start  . . . . . . . . . . . . .	L Near	 00002D25 _TEXT	Public STDCALL
symbol_height  . . . . . . . . .	Number	 00000014h   
symbol_width . . . . . . . . . .	Number	 0000000Ah   
window_title . . . . . . . . . .	Byte	 00000000 _DATA	

	   0 Warnings
	   0 Errors
